---
triple:          'x86_64-apple-darwin'
binary-path:     d1
relocations:
  - { offset: 0x5C, size: 0x8, addend: 0x0, symName: __ZNSt3__119piecewise_constructE, symObjAddr: 0xE9C9, symBinAddr: 0x10000FA7D, symSize: 0x0 }
  - { offset: 0x117A8, size: 0x8, addend: 0x0, symName: __ZNSt3__16copy_nB8ne180100IPKcmPcTnNS_9enable_ifIXsr37__has_random_access_iterator_categoryIT_EE5valueEiE4typeELi0EEET1_S5_T0_S8_, symObjAddr: 0x30A0, symBinAddr: 0x100003F10, symSize: 0x40 }
  - { offset: 0x12935, size: 0x8, addend: 0x0, symName: __ZNSt3__124__put_character_sequenceB8ne180100IcNS_11char_traitsIcEEEERNS_13basic_ostreamIT_T0_EES7_PKS4_m, symObjAddr: 0xAB20, symBinAddr: 0x10000B990, symSize: 0x1F0 }
  - { offset: 0x17903, size: 0x8, addend: 0x0, symName: __ZNSt3__18__fill_nB8ne180100ILb1ENS_6vectorIbNS_9allocatorIbEEEEEEvNS_14__bit_iteratorIT0_Lb0ELi0EEENS6_9size_typeE, symObjAddr: 0xC910, symBinAddr: 0x10000D780, symSize: 0x140 }
  - { offset: 0x179C9, size: 0x8, addend: 0x0, symName: __ZNSt3__18__fill_nB8ne180100ILb0ENS_6vectorIbNS_9allocatorIbEEEEEEvNS_14__bit_iteratorIT0_Lb0ELi0EEENS6_9size_typeE, symObjAddr: 0xCA80, symBinAddr: 0x10000D8F0, symSize: 0x140 }
  - { offset: 0x17E75, size: 0x8, addend: 0x0, symName: __ZNSt3__1eqB8ne180100ERKNS_14__map_iteratorINS_15__tree_iteratorINS_12__value_typeIijEEPNS_11__tree_nodeIS3_PvEElEEEESB_, symObjAddr: 0x7E0, symBinAddr: 0x100001650, symSize: 0x30 }
  - { offset: 0x17EB2, size: 0x8, addend: 0x0, symName: __ZNSt3__1neB8ne180100IPP4DataEEbRKNS_11__wrap_iterIT_EES8_, symObjAddr: 0xF30, symBinAddr: 0x100001DA0, symSize: 0x30 }
  - { offset: 0x17EF5, size: 0x8, addend: 0x0, symName: __ZNSt3__1neB8ne180100INS_11__wrap_iterIPiEES3_EEbRKNS_16reverse_iteratorIT_EERKNS4_IT0_EE, symObjAddr: 0x10C0, symBinAddr: 0x100001F30, symSize: 0x50 }
  - { offset: 0x17F41, size: 0x8, addend: 0x0, symName: __ZNSt3__1lsB8ne180100INS_11char_traitsIcEEEERNS_13basic_ostreamIcT_EES6_PKc, symObjAddr: 0x1160, symBinAddr: 0x100001FD0, symSize: 0x40 }
  - { offset: 0x17F87, size: 0x8, addend: 0x0, symName: __ZNSt3__1lsB8ne180100IcNS_11char_traitsIcEENS_9allocatorIcEEEERNS_13basic_ostreamIT_T0_EES9_RKNS_12basic_stringIS6_S7_T1_EE, symObjAddr: 0x11A0, symBinAddr: 0x100002010, symSize: 0x50 }
  - { offset: 0x17FDF, size: 0x8, addend: 0x0, symName: __ZNSt3__14endlB8ne180100IcNS_11char_traitsIcEEEERNS_13basic_ostreamIT_T0_EES7_, symObjAddr: 0x12C0, symBinAddr: 0x100002130, symSize: 0x50 }
  - { offset: 0x1801F, size: 0x8, addend: 0x0, symName: __ZNSt3__1plB8ne180100IcNS_11char_traitsIcEENS_9allocatorIcEEEENS_12basic_stringIT_T0_T1_EEOS9_PKS6_, symObjAddr: 0x1940, symBinAddr: 0x1000027B0, symSize: 0x50 }
  - { offset: 0x18077, size: 0x8, addend: 0x0, symName: __ZNSt3__1plB8ne180100IcNS_11char_traitsIcEENS_9allocatorIcEEEENS_12basic_stringIT_T0_T1_EEOS9_SA_, symObjAddr: 0x1990, symBinAddr: 0x100002800, symSize: 0x50 }
  - { offset: 0x180CF, size: 0x8, addend: 0x0, symName: __ZNSt3__1plB8ne180100IcNS_11char_traitsIcEENS_9allocatorIcEEEENS_12basic_stringIT_T0_T1_EERKS9_PKS6_, symObjAddr: 0x19E0, symBinAddr: 0x100002850, symSize: 0xF0 }
  - { offset: 0x18F84, size: 0x8, addend: 0x0, symName: __ZNSt3__17getlineB8ne180100IcNS_11char_traitsIcEENS_9allocatorIcEEEERNS_13basic_istreamIT_T0_EES9_RNS_12basic_stringIS6_S7_T1_EES6_, symObjAddr: 0x1C70, symBinAddr: 0x100002AE0, symSize: 0x220 }
  - { offset: 0x19080, size: 0x8, addend: 0x0, symName: __ZNSt3__112__to_addressB8ne180100IKcEEPT_S3_, symObjAddr: 0x2630, symBinAddr: 0x1000034A0, symSize: 0x10 }
  - { offset: 0x190E8, size: 0x8, addend: 0x0, symName: __ZNSt3__112__to_addressB8ne180100IcEEPT_S2_, symObjAddr: 0x2780, symBinAddr: 0x1000035F0, symSize: 0x10 }
  - { offset: 0x1911D, size: 0x8, addend: 0x0, symName: __ZNSt3__118__constexpr_strlenB8ne180100EPKc, symObjAddr: 0x2860, symBinAddr: 0x1000036D0, symSize: 0x20 }
  - { offset: 0x19335, size: 0x8, addend: 0x0, symName: __ZNSt3__120__throw_length_errorB8ne180100EPKc, symObjAddr: 0x2DB0, symBinAddr: 0x100003C20, symSize: 0x70 }
  - { offset: 0x1935D, size: 0x8, addend: 0x0, symName: __ZNSt3__117__libcpp_allocateB8ne180100Emm, symObjAddr: 0x2F40, symBinAddr: 0x100003DB0, symSize: 0x60 }
  - { offset: 0x193B7, size: 0x8, addend: 0x0, symName: __ZNSt3__124__is_overaligned_for_newB8ne180100Em, symObjAddr: 0x2FA0, symBinAddr: 0x100003E10, symSize: 0x20 }
  - { offset: 0x193E5, size: 0x8, addend: 0x0, symName: __ZNSt3__121__libcpp_operator_newB8ne180100IJmSt11align_val_tEEEPvDpT_, symObjAddr: 0x2FC0, symBinAddr: 0x100003E30, symSize: 0x30 }
  - { offset: 0x19432, size: 0x8, addend: 0x0, symName: __ZNSt3__121__libcpp_operator_newB8ne180100IJmEEEPvDpT_, symObjAddr: 0x2FF0, symBinAddr: 0x100003E60, symSize: 0x20 }
  - { offset: 0x1949E, size: 0x8, addend: 0x0, symName: __ZNSt3__14copyB8ne180100IPKcPcEET0_T_S5_S4_, symObjAddr: 0x30E0, symBinAddr: 0x100003F50, symSize: 0x40 }
  - { offset: 0x194F8, size: 0x8, addend: 0x0, symName: __ZNSt3__16__copyB8ne180100INS_17_ClassicAlgPolicyEPKcS3_PcEENS_4pairIT0_T2_EES6_T1_S7_, symObjAddr: 0x3120, symBinAddr: 0x100003F90, symSize: 0x40 }
  - { offset: 0x19564, size: 0x8, addend: 0x0, symName: __ZNSt3__123__dispatch_copy_or_moveB8ne180100INS_17_ClassicAlgPolicyENS_11__copy_loopIS1_EENS_14__copy_trivialEPKcS6_PcEENS_4pairIT2_T4_EES9_T3_SA_, symObjAddr: 0x3160, symBinAddr: 0x100003FD0, symSize: 0x40 }
  - { offset: 0x195E2, size: 0x8, addend: 0x0, symName: __ZNSt3__121__unwrap_and_dispatchB8ne180100INS_10__overloadINS_11__copy_loopINS_17_ClassicAlgPolicyEEENS_14__copy_trivialEEEPKcS8_PcTnNS_9enable_ifIXsr12__can_rewrapIT0_T1_T2_EE5valueEiE4typeELi0EEENS_4pairISB_SD_EESB_SC_SD_, symObjAddr: 0x31A0, symBinAddr: 0x100004010, symSize: 0xB0 }
  - { offset: 0x19671, size: 0x8, addend: 0x0, symName: __ZNSt3__114__unwrap_rangeB8ne180100IPKcS2_EENS_4pairIT0_S4_EET_S6_, symObjAddr: 0x3250, symBinAddr: 0x1000040C0, symSize: 0x50 }
  - { offset: 0x19806, size: 0x8, addend: 0x0, symName: __ZNSt3__113__unwrap_iterB8ne180100IPcNS_18__unwrap_iter_implIS1_Lb1EEETnNS_9enable_ifIXsr21is_copy_constructibleIT_EE5valueEiE4typeELi0EEEDTclsrT0_8__unwrapclsr3stdE7declvalIS5_EEEES5_, symObjAddr: 0x32E0, symBinAddr: 0x100004150, symSize: 0x20 }
  - { offset: 0x1984A, size: 0x8, addend: 0x0, symName: __ZNSt3__19make_pairB8ne180100IPKcPcEENS_4pairINS_18__unwrap_ref_decayIT_E4typeENS5_IT0_E4typeEEEOS6_OS9_, symObjAddr: 0x3300, symBinAddr: 0x100004170, symSize: 0x30 }
  - { offset: 0x19899, size: 0x8, addend: 0x0, symName: __ZNSt3__114__rewrap_rangeB8ne180100IPKcS2_EET_S3_T0_, symObjAddr: 0x3330, symBinAddr: 0x1000041A0, symSize: 0x30 }
  - { offset: 0x198E5, size: 0x8, addend: 0x0, symName: __ZNSt3__113__rewrap_iterB8ne180100IPcS1_NS_18__unwrap_iter_implIS1_Lb1EEEEET_S4_T0_, symObjAddr: 0x3360, symBinAddr: 0x1000041D0, symSize: 0x40 }
  - { offset: 0x1993A, size: 0x8, addend: 0x0, symName: __ZNSt3__19make_pairB8ne180100IPKcS2_EENS_4pairINS_18__unwrap_ref_decayIT_E4typeENS4_IT0_E4typeEEEOS5_OS8_, symObjAddr: 0x33A0, symBinAddr: 0x100004210, symSize: 0x30 }
  - { offset: 0x19989, size: 0x8, addend: 0x0, symName: __ZNSt3__113__unwrap_iterB8ne180100IPKcNS_18__unwrap_iter_implIS2_Lb1EEETnNS_9enable_ifIXsr21is_copy_constructibleIT_EE5valueEiE4typeELi0EEEDTclsrT0_8__unwrapclsr3stdE7declvalIS6_EEEES6_, symObjAddr: 0x33D0, symBinAddr: 0x100004240, symSize: 0x20 }
  - { offset: 0x19AF4, size: 0x8, addend: 0x0, symName: __ZNSt3__119__copy_trivial_implB8ne180100IKccEENS_4pairIPT_PT0_EES4_S4_S6_, symObjAddr: 0x3470, symBinAddr: 0x1000042E0, symSize: 0x70 }
  - { offset: 0x19B5C, size: 0x8, addend: 0x0, symName: __ZNSt3__119__constexpr_memmoveB8ne180100IcKcTnNS_9enable_ifIXsr23__is_always_bitcastableIT0_T_EE5valueEiE4typeELi0EEEPS4_S7_PS3_NS_15__element_countE, symObjAddr: 0x34E0, symBinAddr: 0x100004350, symSize: 0x50 }
  - { offset: 0x19BCA, size: 0x8, addend: 0x0, symName: __ZNSt3__19make_pairB8ne180100IRPKcPcEENS_4pairINS_18__unwrap_ref_decayIT_E4typeENS6_IT0_E4typeEEEOS7_OSA_, symObjAddr: 0x3530, symBinAddr: 0x1000043A0, symSize: 0x30 }
  - { offset: 0x19C6C, size: 0x8, addend: 0x0, symName: __ZNSt3__113__rewrap_iterB8ne180100IPKcS2_NS_18__unwrap_iter_implIS2_Lb1EEEEET_S5_T0_, symObjAddr: 0x3640, symBinAddr: 0x1000044B0, symSize: 0x40 }
  - { offset: 0x19CC1, size: 0x8, addend: 0x0, symName: __ZNSt3__16fill_nB8ne180100IPcmcEET_S2_T0_RKT1_, symObjAddr: 0x3700, symBinAddr: 0x100004570, symSize: 0x40 }
  - { offset: 0x19D24, size: 0x8, addend: 0x0, symName: __ZNSt3__18__fill_nB8ne180100IPcmcEET_S2_T0_RKT1_, symObjAddr: 0x3740, symBinAddr: 0x1000045B0, symSize: 0x50 }
  - { offset: 0x19D87, size: 0x8, addend: 0x0, symName: __ZNSt3__121__convert_to_integralB8ne180100Em, symObjAddr: 0x3790, symBinAddr: 0x100004600, symSize: 0x10 }
  - { offset: 0x19DEA, size: 0x8, addend: 0x0, symName: __ZNSt3__116forward_as_tupleB8ne180100IJRKiEEENS_5tupleIJDpOT_EEES6_, symObjAddr: 0x3E70, symBinAddr: 0x100004CE0, symSize: 0x30 }
  - { offset: 0x19E23, size: 0x8, addend: 0x0, symName: __ZNSt3__116forward_as_tupleB8ne180100IJEEENS_5tupleIJDpOT_EEES4_, symObjAddr: 0x3EA0, symBinAddr: 0x100004D10, symSize: 0x10 }
  - { offset: 0x19E47, size: 0x8, addend: 0x0, symName: __ZNSt3__17launderB8ne180100IKNS_4pairIKi4DataEEEEPT_S7_, symObjAddr: 0x4510, symBinAddr: 0x100005380, symSize: 0x20 }
  - { offset: 0x19E7E, size: 0x8, addend: 0x0, symName: __ZNSt3__19__launderB8ne180100IKNS_4pairIKi4DataEEEEPT_S7_, symObjAddr: 0x4530, symBinAddr: 0x1000053A0, symSize: 0x10 }
  - { offset: 0x19EDE, size: 0x8, addend: 0x0, symName: __ZNSt3__13getB8ne180100ILm0EJRKiEEERNS_13tuple_elementIXT_ENS_5tupleIJDpT0_EEEE4typeERS7_, symObjAddr: 0x4990, symBinAddr: 0x100005800, symSize: 0x20 }
  - { offset: 0x19F21, size: 0x8, addend: 0x0, symName: __ZNSt3__127__tree_balance_after_insertB8ne180100IPNS_16__tree_node_baseIPvEEEEvT_S5_, symObjAddr: 0x4BD0, symBinAddr: 0x100005A40, symSize: 0x320 }
  - { offset: 0x19F9D, size: 0x8, addend: 0x0, symName: __ZNSt3__120__tree_is_left_childB8ne180100IPNS_16__tree_node_baseIPvEEEEbT_, symObjAddr: 0x4F30, symBinAddr: 0x100005DA0, symSize: 0x30 }
  - { offset: 0x19FD2, size: 0x8, addend: 0x0, symName: __ZNSt3__118__tree_left_rotateB8ne180100IPNS_16__tree_node_baseIPvEEEEvT_, symObjAddr: 0x4F60, symBinAddr: 0x100005DD0, symSize: 0xD0 }
  - { offset: 0x1A011, size: 0x8, addend: 0x0, symName: __ZNSt3__119__tree_right_rotateB8ne180100IPNS_16__tree_node_baseIPvEEEEvT_, symObjAddr: 0x5030, symBinAddr: 0x100005EA0, symSize: 0xC0 }
  - { offset: 0x1A053, size: 0x8, addend: 0x0, symName: __ZNSt3__112__destroy_atB8ne180100INS_4pairIKi4DataEETnNS_9enable_ifIXntsr8is_arrayIT_EE5valueEiE4typeELi0EEEvPS6_, symObjAddr: 0x52E0, symBinAddr: 0x100006150, symSize: 0x20 }
  - { offset: 0x1A08A, size: 0x8, addend: 0x0, symName: __ZNSt3__112__to_addressB8ne180100IP4DataEEPT_S4_, symObjAddr: 0x5620, symBinAddr: 0x100006490, symSize: 0x10 }
  - { offset: 0x1A0BF, size: 0x8, addend: 0x0, symName: __ZNSt3__119__libcpp_deallocateB8ne180100EPvmm, symObjAddr: 0x5680, symBinAddr: 0x1000064F0, symSize: 0x60 }
  - { offset: 0x1A124, size: 0x8, addend: 0x0, symName: __ZNSt3__127__do_deallocate_handle_sizeB8ne180100IJSt11align_val_tEEEvPvmDpT_, symObjAddr: 0x56E0, symBinAddr: 0x100006550, symSize: 0x30 }
  - { offset: 0x1A177, size: 0x8, addend: 0x0, symName: __ZNSt3__127__do_deallocate_handle_sizeB8ne180100IJEEEvPvmDpT_, symObjAddr: 0x5710, symBinAddr: 0x100006580, symSize: 0x20 }
  - { offset: 0x1A1B5, size: 0x8, addend: 0x0, symName: __ZNSt3__124__libcpp_operator_deleteB8ne180100IJPvSt11align_val_tEEEvDpT_, symObjAddr: 0x5730, symBinAddr: 0x1000065A0, symSize: 0x30 }
  - { offset: 0x1A1FE, size: 0x8, addend: 0x0, symName: __ZNSt3__124__libcpp_operator_deleteB8ne180100IJPvEEEvDpT_, symObjAddr: 0x5760, symBinAddr: 0x1000065D0, symSize: 0x20 }
  - { offset: 0x1A28A, size: 0x8, addend: 0x0, symName: __ZNSt3__17launderB8ne180100INS_4pairIKi4DataEEEEPT_S6_, symObjAddr: 0x59B0, symBinAddr: 0x100006820, symSize: 0x20 }
  - { offset: 0x1A2C1, size: 0x8, addend: 0x0, symName: __ZNSt3__19__launderB8ne180100INS_4pairIKi4DataEEEEPT_S6_, symObjAddr: 0x59D0, symBinAddr: 0x100006840, symSize: 0x10 }
  - { offset: 0x1A2F8, size: 0x8, addend: 0x0, symName: __ZNSt3__13maxB8ne180100ImEERKT_S3_S3_, symObjAddr: 0x5F50, symBinAddr: 0x100006DC0, symSize: 0x30 }
  - { offset: 0x1A33B, size: 0x8, addend: 0x0, symName: __ZNSt3__13minB8ne180100ImEERKT_S3_S3_, symObjAddr: 0x5F80, symBinAddr: 0x100006DF0, symSize: 0x30 }
  - { offset: 0x1A568, size: 0x8, addend: 0x0, symName: __ZNSt3__13minB8ne180100ImNS_6__lessIvvEEEERKT_S5_S5_T0_, symObjAddr: 0x6000, symBinAddr: 0x100006E70, symSize: 0x50 }
  - { offset: 0x1A607, size: 0x8, addend: 0x0, symName: __ZNSt3__13maxB8ne180100ImNS_6__lessIvvEEEERKT_S5_S5_T0_, symObjAddr: 0x60E0, symBinAddr: 0x100006F50, symSize: 0x50 }
  - { offset: 0x1A661, size: 0x8, addend: 0x0, symName: __ZNSt3__119__allocate_at_leastB8ne180100INS_9allocatorIP4DataEEEENS_19__allocation_resultINS_16allocator_traitsIT_E7pointerEEERS7_m, symObjAddr: 0x6230, symBinAddr: 0x1000070A0, symSize: 0x40 }
  - { offset: 0x1A6A4, size: 0x8, addend: 0x0, symName: __ZNSt3__142__uninitialized_allocator_move_if_noexceptB8ne180100INS_9allocatorIP4DataEENS_16reverse_iteratorIPS3_EES7_S3_vEET1_RT_T0_SB_S8_, symObjAddr: 0x63C0, symBinAddr: 0x100007230, symSize: 0x70 }
  - { offset: 0x1A720, size: 0x8, addend: 0x0, symName: __ZNSt3__14swapB8ne180100IPP4DataEENS_9enable_ifIXaasr21is_move_constructibleIT_EE5valuesr18is_move_assignableIS5_EE5valueEvE4typeERS5_S8_, symObjAddr: 0x6480, symBinAddr: 0x1000072F0, symSize: 0x40 }
  - { offset: 0x1A771, size: 0x8, addend: 0x0, symName: __ZNSt3__14moveB8ne180100INS_16reverse_iteratorIPP4DataEES5_EET0_T_S7_S6_, symObjAddr: 0x64D0, symBinAddr: 0x100007340, symSize: 0x80 }
  - { offset: 0x1A7CB, size: 0x8, addend: 0x0, symName: __ZNSt3__16__moveB8ne180100INS_17_ClassicAlgPolicyENS_16reverse_iteratorIPP4DataEES6_S6_EENS_4pairIT0_T2_EES8_T1_S9_, symObjAddr: 0x6550, symBinAddr: 0x1000073C0, symSize: 0x90 }
  - { offset: 0x1A837, size: 0x8, addend: 0x0, symName: __ZNSt3__123__dispatch_copy_or_moveB8ne180100INS_17_ClassicAlgPolicyENS_11__move_loopIS1_EENS_14__move_trivialENS_16reverse_iteratorIPP4DataEES9_S9_EENS_4pairIT2_T4_EESB_T3_SC_, symObjAddr: 0x65E0, symBinAddr: 0x100007450, symSize: 0x90 }
  - { offset: 0x1A8B5, size: 0x8, addend: 0x0, symName: __ZNSt3__121__unwrap_and_dispatchB8ne180100INS_10__overloadINS_11__move_loopINS_17_ClassicAlgPolicyEEENS_14__move_trivialEEENS_16reverse_iteratorIPP4DataEESB_SB_TnNS_9enable_ifIXsr12__can_rewrapIT0_T1_T2_EE5valueEiE4typeELi0EEENS_4pairISD_SF_EESD_SE_SF_, symObjAddr: 0x6670, symBinAddr: 0x1000074E0, symSize: 0x210 }
  - { offset: 0x1A944, size: 0x8, addend: 0x0, symName: __ZNSt3__114__unwrap_rangeB8ne180100INS_16reverse_iteratorIPP4DataEES5_EENS_4pairIT0_S7_EET_S9_, symObjAddr: 0x6880, symBinAddr: 0x1000076F0, symSize: 0x90 }
  - { offset: 0x1AAFE, size: 0x8, addend: 0x0, symName: __ZNSt3__113__unwrap_iterB8ne180100INS_16reverse_iteratorIPP4DataEENS_18__unwrap_iter_implIS5_Lb0EEETnNS_9enable_ifIXsr21is_copy_constructibleIT_EE5valueEiE4typeELi0EEEDTclsrT0_8__unwrapclsr3stdE7declvalIS9_EEEES9_, symObjAddr: 0x69B0, symBinAddr: 0x100007820, symSize: 0x40 }
  - { offset: 0x1AB42, size: 0x8, addend: 0x0, symName: __ZNSt3__19make_pairB8ne180100INS_16reverse_iteratorIPP4DataEES5_EENS_4pairINS_18__unwrap_ref_decayIT_E4typeENS7_IT0_E4typeEEEOS8_OSB_, symObjAddr: 0x69F0, symBinAddr: 0x100007860, symSize: 0x30 }
  - { offset: 0x1AB91, size: 0x8, addend: 0x0, symName: __ZNSt3__114__rewrap_rangeB8ne180100INS_16reverse_iteratorIPP4DataEES5_EET_S6_T0_, symObjAddr: 0x6A20, symBinAddr: 0x100007890, symSize: 0x60 }
  - { offset: 0x1ABDD, size: 0x8, addend: 0x0, symName: __ZNSt3__113__rewrap_iterB8ne180100INS_16reverse_iteratorIPP4DataEES5_NS_18__unwrap_iter_implIS5_Lb0EEEEET_S8_T0_, symObjAddr: 0x6A80, symBinAddr: 0x1000078F0, symSize: 0x70 }
  - { offset: 0x1AC32, size: 0x8, addend: 0x0, symName: __ZNSt3__1neB8ne180100IPP4DataS3_EEbRKNS_16reverse_iteratorIT_EERKNS4_IT0_EE, symObjAddr: 0x6AF0, symBinAddr: 0x100007960, symSize: 0x40 }
  - { offset: 0x1AD6C, size: 0x8, addend: 0x0, symName: __ZNSt3__14fillB8ne180100INS_11__wrap_iterIPiEEiEEvT_S4_RKT0_, symObjAddr: 0x7300, symBinAddr: 0x100008170, symSize: 0x40 }
  - { offset: 0x1ADC2, size: 0x8, addend: 0x0, symName: __ZNSt3__112__to_addressB8ne180100INS_6vectorIiNS_9allocatorIiEEEEEEPT_S6_, symObjAddr: 0x7A90, symBinAddr: 0x100008900, symSize: 0x10 }
  - { offset: 0x1ADF7, size: 0x8, addend: 0x0, symName: __ZNSt3__119__allocate_at_leastB8ne180100INS_9allocatorINS_6vectorIiNS1_IiEEEEEEEENS_19__allocation_resultINS_16allocator_traitsIT_E7pointerEEERS8_m, symObjAddr: 0x7E00, symBinAddr: 0x100008C70, symSize: 0x40 }
  - { offset: 0x1AE3A, size: 0x8, addend: 0x0, symName: __ZNSt3__142__uninitialized_allocator_move_if_noexceptB8ne180100INS_9allocatorINS_6vectorIiNS1_IiEEEEEENS_16reverse_iteratorIPS4_EES8_S8_EET2_RT_T0_T1_S9_, symObjAddr: 0x8050, symBinAddr: 0x100008EC0, symSize: 0x180 }
  - { offset: 0x1AED9, size: 0x8, addend: 0x0, symName: __ZNSt3__14swapB8ne180100IPNS_6vectorIiNS_9allocatorIiEEEEEENS_9enable_ifIXaasr21is_move_constructibleIT_EE5valuesr18is_move_assignableIS7_EE5valueEvE4typeERS7_SA_, symObjAddr: 0x8220, symBinAddr: 0x100009090, symSize: 0x40 }
  - { offset: 0x1AF2A, size: 0x8, addend: 0x0, symName: __ZNSt3__122__make_exception_guardB8ne180100INS_29_AllocatorDestroyRangeReverseINS_9allocatorINS_6vectorIiNS2_IiEEEEEENS_16reverse_iteratorIPS5_EEEEEENS_28__exception_guard_exceptionsIT_EESC_, symObjAddr: 0x8270, symBinAddr: 0x1000090E0, symSize: 0x60 }
  - { offset: 0x1AF5F, size: 0x8, addend: 0x0, symName: __ZNSt3__1neB8ne180100IPNS_6vectorIiNS_9allocatorIiEEEES5_EEbRKNS_16reverse_iteratorIT_EERKNS6_IT0_EE, symObjAddr: 0x8310, symBinAddr: 0x100009180, symSize: 0x40 }
  - { offset: 0x1AFAB, size: 0x8, addend: 0x0, symName: __ZNSt3__112__to_addressB8ne180100INS_16reverse_iteratorIPNS_6vectorIiNS_9allocatorIiEEEEEEvEEu7__decayIDTclsr19__to_address_helperIT_EE6__callclsr3stdE7declvalIRKS8_EEEEESA_, symObjAddr: 0x8380, symBinAddr: 0x1000091F0, symSize: 0x20 }
  - { offset: 0x1B00A, size: 0x8, addend: 0x0, symName: __ZNSt3__119__allocator_destroyB8ne180100INS_9allocatorINS_6vectorIiNS1_IiEEEEEENS_16reverse_iteratorINS6_IPS4_EEEES9_EEvRT_T0_T1_, symObjAddr: 0x88E0, symBinAddr: 0x100009750, symSize: 0x70 }
  - { offset: 0x1B06D, size: 0x8, addend: 0x0, symName: __ZNSt3__1neB8ne180100INS_16reverse_iteratorIPNS_6vectorIiNS_9allocatorIiEEEEEES7_EEbRKNS1_IT_EERKNS1_IT0_EE, symObjAddr: 0x8980, symBinAddr: 0x1000097F0, symSize: 0x50 }
  - { offset: 0x1B0B9, size: 0x8, addend: 0x0, symName: __ZNSt3__112__to_addressB8ne180100INS_16reverse_iteratorINS1_IPNS_6vectorIiNS_9allocatorIiEEEEEEEEvEEu7__decayIDTclsr19__to_address_helperIT_EE6__callclsr3stdE7declvalIRKS9_EEEEESB_, symObjAddr: 0x8A00, symBinAddr: 0x100009870, symSize: 0x20 }
  - { offset: 0x1B118, size: 0x8, addend: 0x0, symName: __ZNSt3__112__to_addressB8ne180100IiEEPT_S2_, symObjAddr: 0x93E0, symBinAddr: 0x10000A250, symSize: 0x10 }
  - { offset: 0x1B14D, size: 0x8, addend: 0x0, symName: __ZNSt3__119__allocate_at_leastB8ne180100INS_9allocatorIiEEEENS_19__allocation_resultINS_16allocator_traitsIT_E7pointerEEERS5_m, symObjAddr: 0x9720, symBinAddr: 0x10000A590, symSize: 0x40 }
  - { offset: 0x1B190, size: 0x8, addend: 0x0, symName: __ZNSt3__142__uninitialized_allocator_move_if_noexceptB8ne180100INS_9allocatorIiEENS_16reverse_iteratorIPiEES5_ivEET1_RT_T0_S9_S6_, symObjAddr: 0x9970, symBinAddr: 0x10000A7E0, symSize: 0x70 }
  - { offset: 0x1B20C, size: 0x8, addend: 0x0, symName: __ZNSt3__14swapB8ne180100IPiEENS_9enable_ifIXaasr21is_move_constructibleIT_EE5valuesr18is_move_assignableIS3_EE5valueEvE4typeERS3_S6_, symObjAddr: 0x9A30, symBinAddr: 0x10000A8A0, symSize: 0x40 }
  - { offset: 0x1B25D, size: 0x8, addend: 0x0, symName: __ZNSt3__14moveB8ne180100INS_16reverse_iteratorIPiEES3_EET0_T_S5_S4_, symObjAddr: 0x9A80, symBinAddr: 0x10000A8F0, symSize: 0x80 }
  - { offset: 0x1B2B7, size: 0x8, addend: 0x0, symName: __ZNSt3__16__moveB8ne180100INS_17_ClassicAlgPolicyENS_16reverse_iteratorIPiEES4_S4_EENS_4pairIT0_T2_EES6_T1_S7_, symObjAddr: 0x9B00, symBinAddr: 0x10000A970, symSize: 0x90 }
  - { offset: 0x1B323, size: 0x8, addend: 0x0, symName: __ZNSt3__123__dispatch_copy_or_moveB8ne180100INS_17_ClassicAlgPolicyENS_11__move_loopIS1_EENS_14__move_trivialENS_16reverse_iteratorIPiEES7_S7_EENS_4pairIT2_T4_EES9_T3_SA_, symObjAddr: 0x9B90, symBinAddr: 0x10000AA00, symSize: 0x90 }
  - { offset: 0x1B3A1, size: 0x8, addend: 0x0, symName: __ZNSt3__121__unwrap_and_dispatchB8ne180100INS_10__overloadINS_11__move_loopINS_17_ClassicAlgPolicyEEENS_14__move_trivialEEENS_16reverse_iteratorIPiEES9_S9_TnNS_9enable_ifIXsr12__can_rewrapIT0_T1_T2_EE5valueEiE4typeELi0EEENS_4pairISB_SD_EESB_SC_SD_, symObjAddr: 0x9C20, symBinAddr: 0x10000AA90, symSize: 0x210 }
  - { offset: 0x1B430, size: 0x8, addend: 0x0, symName: __ZNSt3__114__unwrap_rangeB8ne180100INS_16reverse_iteratorIPiEES3_EENS_4pairIT0_S5_EET_S7_, symObjAddr: 0x9E30, symBinAddr: 0x10000ACA0, symSize: 0x90 }
  - { offset: 0x1B550, size: 0x8, addend: 0x0, symName: __ZNSt3__113__unwrap_iterB8ne180100INS_16reverse_iteratorIPiEENS_18__unwrap_iter_implIS3_Lb0EEETnNS_9enable_ifIXsr21is_copy_constructibleIT_EE5valueEiE4typeELi0EEEDTclsrT0_8__unwrapclsr3stdE7declvalIS7_EEEES7_, symObjAddr: 0x9F60, symBinAddr: 0x10000ADD0, symSize: 0x40 }
  - { offset: 0x1B594, size: 0x8, addend: 0x0, symName: __ZNSt3__19make_pairB8ne180100INS_16reverse_iteratorIPiEES3_EENS_4pairINS_18__unwrap_ref_decayIT_E4typeENS5_IT0_E4typeEEEOS6_OS9_, symObjAddr: 0x9FA0, symBinAddr: 0x10000AE10, symSize: 0x30 }
  - { offset: 0x1B5E3, size: 0x8, addend: 0x0, symName: __ZNSt3__114__rewrap_rangeB8ne180100INS_16reverse_iteratorIPiEES3_EET_S4_T0_, symObjAddr: 0x9FD0, symBinAddr: 0x10000AE40, symSize: 0x60 }
  - { offset: 0x1B62F, size: 0x8, addend: 0x0, symName: __ZNSt3__113__rewrap_iterB8ne180100INS_16reverse_iteratorIPiEES3_NS_18__unwrap_iter_implIS3_Lb0EEEEET_S6_T0_, symObjAddr: 0xA030, symBinAddr: 0x10000AEA0, symSize: 0x70 }
  - { offset: 0x1B684, size: 0x8, addend: 0x0, symName: __ZNSt3__1neB8ne180100IPiS1_EEbRKNS_16reverse_iteratorIT_EERKNS2_IT0_EE, symObjAddr: 0xA0A0, symBinAddr: 0x10000AF10, symSize: 0x40 }
  - { offset: 0x1B723, size: 0x8, addend: 0x0, symName: __ZNSt3__16__fillB8ne180100INS_11__wrap_iterIPiEEiEEvT_S4_RKT0_NS_26random_access_iterator_tagE, symObjAddr: 0xA540, symBinAddr: 0x10000B3B0, symSize: 0x50 }
  - { offset: 0x1B783, size: 0x8, addend: 0x0, symName: __ZNSt3__16fill_nB8ne180100INS_11__wrap_iterIPiEEliEET_S4_T0_RKT1_, symObjAddr: 0xA590, symBinAddr: 0x10000B400, symSize: 0x50 }
  - { offset: 0x1B7E6, size: 0x8, addend: 0x0, symName: __ZNSt3__1miB8ne180100IPiS1_EEDTmicldtfp_4baseEcldtfp0_4baseEERKNS_11__wrap_iterIT_EERKNS3_IT0_EE, symObjAddr: 0xA5E0, symBinAddr: 0x10000B450, symSize: 0x40 }
  - { offset: 0x1B832, size: 0x8, addend: 0x0, symName: __ZNSt3__18__fill_nB8ne180100INS_11__wrap_iterIPiEEliEET_S4_T0_RKT1_, symObjAddr: 0xA620, symBinAddr: 0x10000B490, symSize: 0x70 }
  - { offset: 0x1B895, size: 0x8, addend: 0x0, symName: __ZNSt3__121__convert_to_integralB8ne180100El, symObjAddr: 0xA690, symBinAddr: 0x10000B500, symSize: 0x10 }
  - { offset: 0x1B8C1, size: 0x8, addend: 0x0, symName: __ZNSt3__1eqB8ne180100IPP4DataEEbRKNS_11__wrap_iterIT_EES8_, symObjAddr: 0xA8D0, symBinAddr: 0x10000B740, symSize: 0x40 }
  - { offset: 0x1B904, size: 0x8, addend: 0x0, symName: __ZNSt3__1neB8ne180100IPiEEbRKNS_11__wrap_iterIT_EES6_, symObjAddr: 0xA930, symBinAddr: 0x10000B7A0, symSize: 0x30 }
  - { offset: 0x1B947, size: 0x8, addend: 0x0, symName: __ZNSt3__1eqB8ne180100IPiEEbRKNS_11__wrap_iterIT_EES6_, symObjAddr: 0xA980, symBinAddr: 0x10000B7F0, symSize: 0x40 }
  - { offset: 0x1B98A, size: 0x8, addend: 0x0, symName: __ZNSt3__116__pad_and_outputB8ne180100IcNS_11char_traitsIcEEEENS_19ostreambuf_iteratorIT_T0_EES6_PKS4_S8_S8_RNS_8ios_baseES4_, symObjAddr: 0xAD30, symBinAddr: 0x10000BBA0, symSize: 0x220 }
  - { offset: 0x1BA5A, size: 0x8, addend: 0x0, symName: __ZNSt3__19use_facetB8ne180100INS_5ctypeIcEEEERKT_RKNS_6localeE, symObjAddr: 0xB290, symBinAddr: 0x10000C100, symSize: 0x30 }
  - { offset: 0x1BF27, size: 0x8, addend: 0x0, symName: __ZNSt3__122__make_exception_guardB8ne180100INS_6vectorIjNS_9allocatorIjEEE16__destroy_vectorEEENS_28__exception_guard_exceptionsIT_EES7_, symObjAddr: 0xB400, symBinAddr: 0x10000C270, symSize: 0x40 }
  - { offset: 0x1BF5C, size: 0x8, addend: 0x0, symName: __ZNSt3__119__allocate_at_leastB8ne180100INS_9allocatorIjEEEENS_19__allocation_resultINS_16allocator_traitsIT_E7pointerEEERS5_m, symObjAddr: 0xB7B0, symBinAddr: 0x10000C620, symSize: 0x40 }
  - { offset: 0x1BF9F, size: 0x8, addend: 0x0, symName: __ZNSt3__112__to_addressB8ne180100IjEEPT_S2_, symObjAddr: 0xB9E0, symBinAddr: 0x10000C850, symSize: 0x10 }
  - { offset: 0x1BFD4, size: 0x8, addend: 0x0, symName: __ZNSt3__112__destroy_atB8ne180100INS_4pairIKijEETnNS_9enable_ifIXntsr8is_arrayIT_EE5valueEiE4typeELi0EEEvPS5_, symObjAddr: 0xC200, symBinAddr: 0x10000D070, symSize: 0x10 }
  - { offset: 0x1C00B, size: 0x8, addend: 0x0, symName: __ZNSt3__17launderB8ne180100INS_4pairIKijEEEEPT_S5_, symObjAddr: 0xC230, symBinAddr: 0x10000D0A0, symSize: 0x20 }
  - { offset: 0x1C042, size: 0x8, addend: 0x0, symName: __ZNSt3__19__launderB8ne180100INS_4pairIKijEEEEPT_S5_, symObjAddr: 0xC250, symBinAddr: 0x10000D0C0, symSize: 0x10 }
  - { offset: 0x1C079, size: 0x8, addend: 0x0, symName: __ZNSt3__119__allocate_at_leastB8ne180100INS_9allocatorImEEEENS_19__allocation_resultINS_16allocator_traitsIT_E7pointerEEERS5_m, symObjAddr: 0xC650, symBinAddr: 0x10000D4C0, symSize: 0x40 }
  - { offset: 0x1C0BC, size: 0x8, addend: 0x0, symName: __ZNSt3__16fill_nB8ne180100INS_6vectorIbNS_9allocatorIbEEEEEEvNS_14__bit_iteratorIT_Lb0ELi0EEENS6_9size_typeEb, symObjAddr: 0xC840, symBinAddr: 0x10000D6B0, symSize: 0x80 }
  - { offset: 0x1C10A, size: 0x8, addend: 0x0, symName: __ZNSt3__16fill_nB8ne180100IPmmmEET_S2_T0_RKT1_, symObjAddr: 0xCBC0, symBinAddr: 0x10000DA30, symSize: 0x40 }
  - { offset: 0x1C16D, size: 0x8, addend: 0x0, symName: __ZNSt3__112__to_addressB8ne180100ImEEPT_S2_, symObjAddr: 0xCC00, symBinAddr: 0x10000DA70, symSize: 0x10 }
  - { offset: 0x1C1A2, size: 0x8, addend: 0x0, symName: __ZNSt3__18__fill_nB8ne180100IPmmmEET_S2_T0_RKT1_, symObjAddr: 0xCC10, symBinAddr: 0x10000DA80, symSize: 0x50 }
  - { offset: 0x1C205, size: 0x8, addend: 0x0, symName: __ZNSt3__17launderB8ne180100IKNS_4pairIKijEEEEPT_S6_, symObjAddr: 0xD590, symBinAddr: 0x10000E400, symSize: 0x20 }
  - { offset: 0x1C23C, size: 0x8, addend: 0x0, symName: __ZNSt3__19__launderB8ne180100IKNS_4pairIKijEEEEPT_S6_, symObjAddr: 0xD5B0, symBinAddr: 0x10000E420, symSize: 0x10 }
  - { offset: 0x1C2C4, size: 0x8, addend: 0x0, symName: __ZNSt3__1neB8ne180100ERKNS_15__tree_iteratorINS_12__value_typeIijEEPNS_11__tree_nodeIS2_PvEElEES9_, symObjAddr: 0xDF60, symBinAddr: 0x10000EDD0, symSize: 0x30 }
  - { offset: 0x1C301, size: 0x8, addend: 0x0, symName: __ZNSt3__1eqB8ne180100ERKNS_15__tree_iteratorINS_12__value_typeIijEEPNS_11__tree_nodeIS2_PvEElEES9_, symObjAddr: 0xE030, symBinAddr: 0x10000EEA0, symSize: 0x30 }
  - { offset: 0x1D5F4, size: 0x8, addend: 0x0, symName: __ZSt28__throw_bad_array_new_lengthB8ne180100v, symObjAddr: 0x2F00, symBinAddr: 0x100003D70, symSize: 0x40 }
  - { offset: 0x1E85D, size: 0x8, addend: 0x0, symName: __ZNSt3__16vectorIP4DataNS_9allocatorIS2_EEE26__swap_out_circular_bufferERNS_14__split_bufferIS2_RS4_EE, symObjAddr: 0x5D90, symBinAddr: 0x100006C00, symSize: 0x120 }
  - { offset: 0x1E8B5, size: 0x8, addend: 0x0, symName: __ZNSt3__16vectorINS0_IiNS_9allocatorIiEEEENS1_IS3_EEE26__swap_out_circular_bufferERNS_14__split_bufferIS3_RS4_EE, symObjAddr: 0x78C0, symBinAddr: 0x100008730, symSize: 0x120 }
  - { offset: 0x1E94D, size: 0x8, addend: 0x0, symName: __ZNSt3__16vectorIiNS_9allocatorIiEEE26__swap_out_circular_bufferERNS_14__split_bufferIiRS2_EE, symObjAddr: 0x9240, symBinAddr: 0x10000A0B0, symSize: 0x120 }
  - { offset: 0x1F084, size: 0x8, addend: 0x0, symName: __Z15dijkstra_matrixR5GraphiiRNSt3__16vectorIiNS1_9allocatorIiEEEE, symObjAddr: 0x0, symBinAddr: 0x100000E70, symSize: 0x4D0 }
  - { offset: 0x1F2B6, size: 0x8, addend: 0x0, symName: __ZNK5Graph4sizeEv, symObjAddr: 0x4D0, symBinAddr: 0x100001340, symSize: 0x20 }
  - { offset: 0x1F2DC, size: 0x8, addend: 0x0, symName: __ZNSt3__16vectorIjNS_9allocatorIjEEEC1EmRKj, symObjAddr: 0x4F0, symBinAddr: 0x100001360, symSize: 0x30 }
  - { offset: 0x1F326, size: 0x8, addend: 0x0, symName: __ZNSt3__13mapIijNS_4lessIiEENS_9allocatorINS_4pairIKijEEEEEC1B8ne180100Ev, symObjAddr: 0x520, symBinAddr: 0x100001390, symSize: 0x20 }
  - { offset: 0x1F350, size: 0x8, addend: 0x0, symName: __ZNSt3__16vectorIbNS_9allocatorIbEEEC1EmRKb, symObjAddr: 0x540, symBinAddr: 0x1000013B0, symSize: 0x30 }
  - { offset: 0x1F39A, size: 0x8, addend: 0x0, symName: __ZNSt3__16vectorIjNS_9allocatorIjEEEixB8ne180100Em, symObjAddr: 0x570, symBinAddr: 0x1000013E0, symSize: 0x20 }
  - { offset: 0x1F3D1, size: 0x8, addend: 0x0, symName: __ZNSt3__16vectorIbNS_9allocatorIbEEEixB8ne180100Em, symObjAddr: 0x590, symBinAddr: 0x100001400, symSize: 0x40 }
  - { offset: 0x1F406, size: 0x8, addend: 0x0, symName: __ZNKSt3__115__bit_referenceINS_6vectorIbNS_9allocatorIbEEEELb1EEcvbB8ne180100Ev, symObjAddr: 0x5D0, symBinAddr: 0x100001440, symSize: 0x30 }
  - { offset: 0x1F42C, size: 0x8, addend: 0x0, symName: __ZNSt3__115__bit_referenceINS_6vectorIbNS_9allocatorIbEEEELb1EEaSB8ne180100Eb, symObjAddr: 0x600, symBinAddr: 0x100001470, symSize: 0x60 }
  - { offset: 0x1F460, size: 0x8, addend: 0x0, symName: __ZN5Graph9connectedEii, symObjAddr: 0x660, symBinAddr: 0x1000014D0, symSize: 0x60 }
  - { offset: 0x1F4A2, size: 0x8, addend: 0x0, symName: __ZN5Graph6weightEii, symObjAddr: 0x6C0, symBinAddr: 0x100001530, symSize: 0x30 }
  - { offset: 0x1F4E4, size: 0x8, addend: 0x0, symName: __ZNSt3__13mapIijNS_4lessIiEENS_9allocatorINS_4pairIKijEEEEEixERS5_, symObjAddr: 0x6F0, symBinAddr: 0x100001560, symSize: 0x70 }
  - { offset: 0x1F51B, size: 0x8, addend: 0x0, symName: __ZNSt3__16vectorIiNS_9allocatorIiEEE9push_backB8ne180100ERKi, symObjAddr: 0x760, symBinAddr: 0x1000015D0, symSize: 0x80 }
  - { offset: 0x1F561, size: 0x8, addend: 0x0, symName: __ZNSt3__13mapIijNS_4lessIiEENS_9allocatorINS_4pairIKijEEEEE4findB8ne180100ERS5_, symObjAddr: 0x810, symBinAddr: 0x100001680, symSize: 0x40 }
  - { offset: 0x1F596, size: 0x8, addend: 0x0, symName: __ZNSt3__13mapIijNS_4lessIiEENS_9allocatorINS_4pairIKijEEEEE3endB8ne180100Ev, symObjAddr: 0x850, symBinAddr: 0x1000016C0, symSize: 0x30 }
  - { offset: 0x1F5BC, size: 0x8, addend: 0x0, symName: __ZNSt3__16vectorIiNS_9allocatorIiEEE5clearB8ne180100Ev, symObjAddr: 0x880, symBinAddr: 0x1000016F0, symSize: 0x40 }
  - { offset: 0x1F5F1, size: 0x8, addend: 0x0, symName: __ZNSt3__16vectorIbNS_9allocatorIbEEED1B8ne180100Ev, symObjAddr: 0x8C0, symBinAddr: 0x100001730, symSize: 0x20 }
  - { offset: 0x1F61B, size: 0x8, addend: 0x0, symName: __ZNSt3__13mapIijNS_4lessIiEENS_9allocatorINS_4pairIKijEEEEED1B8ne180100Ev, symObjAddr: 0x8E0, symBinAddr: 0x100001750, symSize: 0x20 }
  - { offset: 0x1F645, size: 0x8, addend: 0x0, symName: __ZNSt3__16vectorIjNS_9allocatorIjEEED1B8ne180100Ev, symObjAddr: 0x900, symBinAddr: 0x100001770, symSize: 0x20 }
  - { offset: 0x1F66F, size: 0x8, addend: 0x0, symName: _main, symObjAddr: 0x920, symBinAddr: 0x100001790, symSize: 0x500 }
  - { offset: 0x1F76B, size: 0x8, addend: 0x0, symName: __ZNSt3__112basic_stringIcNS_11char_traitsIcEENS_9allocatorIcEEEC1B8ne180100ILi0EEEPKc, symObjAddr: 0xE20, symBinAddr: 0x100001C90, symSize: 0x30 }
  - { offset: 0x1F800, size: 0x8, addend: 0x0, symName: __ZN12DataProviderC1ENSt3__112basic_stringIcNS0_11char_traitsIcEENS0_9allocatorIcEEEE, symObjAddr: 0xE50, symBinAddr: 0x100001CC0, symSize: 0x20 }
  - { offset: 0x1F839, size: 0x8, addend: 0x0, symName: __ZN5GraphC1Ei, symObjAddr: 0xE70, symBinAddr: 0x100001CE0, symSize: 0x30 }
  - { offset: 0x1F871, size: 0x8, addend: 0x0, symName: __ZN12DataProviderixEi, symObjAddr: 0xEA0, symBinAddr: 0x100001D10, symSize: 0x30 }
  - { offset: 0x1F8A5, size: 0x8, addend: 0x0, symName: __ZNSt3__16vectorIP4DataNS_9allocatorIS2_EEE5beginB8ne180100Ev, symObjAddr: 0xED0, symBinAddr: 0x100001D40, symSize: 0x30 }
  - { offset: 0x1F8CD, size: 0x8, addend: 0x0, symName: __ZNSt3__16vectorIP4DataNS_9allocatorIS2_EEE3endB8ne180100Ev, symObjAddr: 0xF00, symBinAddr: 0x100001D70, symSize: 0x30 }
  - { offset: 0x1F8F5, size: 0x8, addend: 0x0, symName: __ZNKSt3__111__wrap_iterIPP4DataEdeB8ne180100Ev, symObjAddr: 0xF60, symBinAddr: 0x100001DD0, symSize: 0x20 }
  - { offset: 0x1F91B, size: 0x8, addend: 0x0, symName: __ZN5Graph7addEdgeEiii, symObjAddr: 0xF80, symBinAddr: 0x100001DF0, symSize: 0x90 }
  - { offset: 0x1F96B, size: 0x8, addend: 0x0, symName: __ZNK4Data4sizeEv, symObjAddr: 0x1010, symBinAddr: 0x100001E80, symSize: 0x20 }
  - { offset: 0x1F991, size: 0x8, addend: 0x0, symName: __ZNSt3__111__wrap_iterIPP4DataEppB8ne180100Ev, symObjAddr: 0x1030, symBinAddr: 0x100001EA0, symSize: 0x20 }
  - { offset: 0x1F9B7, size: 0x8, addend: 0x0, symName: __ZNSt3__16vectorIiNS_9allocatorIiEEEC1B8ne180100Ev, symObjAddr: 0x1050, symBinAddr: 0x100001EC0, symSize: 0x20 }
  - { offset: 0x1F9E1, size: 0x8, addend: 0x0, symName: __ZNSt3__16vectorIiNS_9allocatorIiEEE6rbeginB8ne180100Ev, symObjAddr: 0x1070, symBinAddr: 0x100001EE0, symSize: 0x50 }
  - { offset: 0x1FA07, size: 0x8, addend: 0x0, symName: __ZNSt3__16vectorIiNS_9allocatorIiEEE4rendB8ne180100Ev, symObjAddr: 0x1110, symBinAddr: 0x100001F80, symSize: 0x50 }
  - { offset: 0x1FA2D, size: 0x8, addend: 0x0, symName: __ZNKSt3__116reverse_iteratorINS_11__wrap_iterIPiEEEdeB8ne180100Ev, symObjAddr: 0x11F0, symBinAddr: 0x100002060, symSize: 0x30 }
  - { offset: 0x1FA61, size: 0x8, addend: 0x0, symName: __ZNKSt3__116reverse_iteratorINS_11__wrap_iterIPiEEEplB8ne180100El, symObjAddr: 0x1220, symBinAddr: 0x100002090, symSize: 0x40 }
  - { offset: 0x1FA95, size: 0x8, addend: 0x0, symName: __ZNSt3__116reverse_iteratorINS_11__wrap_iterIPiEEEppB8ne180100Ei, symObjAddr: 0x1260, symBinAddr: 0x1000020D0, symSize: 0x40 }
  - { offset: 0x1FAD3, size: 0x8, addend: 0x0, symName: __ZNSt3__113basic_ostreamIcNS_11char_traitsIcEEElsB8ne180100EPFRS3_S4_E, symObjAddr: 0x12A0, symBinAddr: 0x100002110, symSize: 0x20 }
  - { offset: 0x1FB07, size: 0x8, addend: 0x0, symName: __ZNSt3__16vectorIiNS_9allocatorIiEEED1B8ne180100Ev, symObjAddr: 0x1310, symBinAddr: 0x100002180, symSize: 0x20 }
  - { offset: 0x1FB31, size: 0x8, addend: 0x0, symName: __ZN5GraphD1Ev, symObjAddr: 0x1330, symBinAddr: 0x1000021A0, symSize: 0x20 }
  - { offset: 0x1FB5D, size: 0x8, addend: 0x0, symName: __ZN12DataProviderD1Ev, symObjAddr: 0x1350, symBinAddr: 0x1000021C0, symSize: 0x20 }
  - { offset: 0x1FB89, size: 0x8, addend: 0x0, symName: __ZNKSt3__16vectorINS0_IiNS_9allocatorIiEEEENS1_IS3_EEE4sizeB8ne180100Ev, symObjAddr: 0x1370, symBinAddr: 0x1000021E0, symSize: 0x30 }
  - { offset: 0x1FBAF, size: 0x8, addend: 0x0, symName: __ZN6MatrixclEii, symObjAddr: 0x13A0, symBinAddr: 0x100002210, symSize: 0x40 }
  - { offset: 0x1FBF1, size: 0x8, addend: 0x0, symName: __ZNSt3__16vectorINS0_IiNS_9allocatorIiEEEENS1_IS3_EEEixB8ne180100Em, symObjAddr: 0x13E0, symBinAddr: 0x100002250, symSize: 0x20 }
  - { offset: 0x1FC28, size: 0x8, addend: 0x0, symName: __ZNSt3__16vectorIiNS_9allocatorIiEEEixB8ne180100Em, symObjAddr: 0x1400, symBinAddr: 0x100002270, symSize: 0x20 }
  - { offset: 0x1FC5F, size: 0x8, addend: 0x0, symName: __ZN12DataProviderC2ENSt3__112basic_stringIcNS0_11char_traitsIcEENS0_9allocatorIcEEEE, symObjAddr: 0x1420, symBinAddr: 0x100002290, symSize: 0x500 }
  - { offset: 0x1FD24, size: 0x8, addend: 0x0, symName: __ZNSt3__13mapIi4DataNS_4lessIiEENS_9allocatorINS_4pairIKiS1_EEEEEC1B8ne180100Ev, symObjAddr: 0x1920, symBinAddr: 0x100002790, symSize: 0x20 }
  - { offset: 0x2009D, size: 0x8, addend: 0x0, symName: __ZNSt3__114basic_ifstreamIcNS_11char_traitsIcEEEC1ERKNS_12basic_stringIcS2_NS_9allocatorIcEEEEj, symObjAddr: 0x1AD0, symBinAddr: 0x100002940, symSize: 0x160 }
  - { offset: 0x200E5, size: 0x8, addend: 0x0, symName: __ZNKSt3__19basic_iosIcNS_11char_traitsIcEEEntB8ne180100Ev, symObjAddr: 0x1C30, symBinAddr: 0x100002AA0, symSize: 0x20 }
  - { offset: 0x2010B, size: 0x8, addend: 0x0, symName: __ZNSt3__112basic_stringIcNS_11char_traitsIcEENS_9allocatorIcEEEC1B8ne180100Ev, symObjAddr: 0x1C50, symBinAddr: 0x100002AC0, symSize: 0x20 }
  - { offset: 0x20135, size: 0x8, addend: 0x0, symName: __ZNSt3__13mapIi4DataNS_4lessIiEENS_9allocatorINS_4pairIKiS1_EEEEEixERS6_, symObjAddr: 0x1E90, symBinAddr: 0x100002D00, symSize: 0x70 }
  - { offset: 0x2016C, size: 0x8, addend: 0x0, symName: __ZNSt3__16vectorIP4DataNS_9allocatorIS2_EEE9push_backB8ne180100EOS2_, symObjAddr: 0x1F00, symBinAddr: 0x100002D70, symSize: 0x80 }
  - { offset: 0x201B7, size: 0x8, addend: 0x0, symName: __ZNSt3__114basic_ifstreamIcNS_11char_traitsIcEEED1Ev, symObjAddr: 0x1F80, symBinAddr: 0x100002DF0, symSize: 0x40 }
  - { offset: 0x201E4, size: 0x8, addend: 0x0, symName: __ZNSt3__13mapIi4DataNS_4lessIiEENS_9allocatorINS_4pairIKiS1_EEEEED1B8ne180100Ev, symObjAddr: 0x1FC0, symBinAddr: 0x100002E30, symSize: 0x20 }
  - { offset: 0x2020E, size: 0x8, addend: 0x0, symName: __ZNSt3__13mapIi4DataNS_4lessIiEENS_9allocatorINS_4pairIKiS1_EEEEEC2B8ne180100Ev, symObjAddr: 0x1FE0, symBinAddr: 0x100002E50, symSize: 0x30 }
  - { offset: 0x20238, size: 0x8, addend: 0x0, symName: __ZNSt3__119__map_value_compareIiNS_12__value_typeIi4DataEENS_4lessIiEELb1EEC1B8ne180100ES5_, symObjAddr: 0x2010, symBinAddr: 0x100002E80, symSize: 0x20 }
  - { offset: 0x20271, size: 0x8, addend: 0x0, symName: __ZNSt3__16__treeINS_12__value_typeIi4DataEENS_19__map_value_compareIiS3_NS_4lessIiEELb1EEENS_9allocatorIS3_EEEC1ERKS7_, symObjAddr: 0x2030, symBinAddr: 0x100002EA0, symSize: 0x30 }
  - { offset: 0x202AC, size: 0x8, addend: 0x0, symName: __ZNSt3__119__map_value_compareIiNS_12__value_typeIi4DataEENS_4lessIiEELb1EEC2B8ne180100ES5_, symObjAddr: 0x2060, symBinAddr: 0x100002ED0, symSize: 0x10 }
  - { offset: 0x202E5, size: 0x8, addend: 0x0, symName: __ZNSt3__16__treeINS_12__value_typeIi4DataEENS_19__map_value_compareIiS3_NS_4lessIiEELb1EEENS_9allocatorIS3_EEEC2ERKS7_, symObjAddr: 0x2070, symBinAddr: 0x100002EE0, symSize: 0x80 }
  - { offset: 0x20320, size: 0x8, addend: 0x0, symName: __ZNSt3__117__compressed_pairINS_15__tree_end_nodeIPNS_16__tree_node_baseIPvEEEENS_9allocatorINS_11__tree_nodeINS_12__value_typeIi4DataEES3_EEEEEC1B8ne180100ILb1EvEEv, symObjAddr: 0x20F0, symBinAddr: 0x100002F60, symSize: 0x20 }
  - { offset: 0x2035B, size: 0x8, addend: 0x0, symName: __ZNSt3__117__compressed_pairImNS_19__map_value_compareIiNS_12__value_typeIi4DataEENS_4lessIiEELb1EEEEC1B8ne180100IiRKS7_EEOT_OT0_, symObjAddr: 0x2120, symBinAddr: 0x100002F90, symSize: 0x30 }
  - { offset: 0x203B3, size: 0x8, addend: 0x0, symName: __ZNSt3__16__treeINS_12__value_typeIi4DataEENS_19__map_value_compareIiS3_NS_4lessIiEELb1EEENS_9allocatorIS3_EEE10__end_nodeB8ne180100Ev, symObjAddr: 0x2150, symBinAddr: 0x100002FC0, symSize: 0x30 }
  - { offset: 0x203D9, size: 0x8, addend: 0x0, symName: __ZNSt3__16__treeINS_12__value_typeIi4DataEENS_19__map_value_compareIiS3_NS_4lessIiEELb1EEENS_9allocatorIS3_EEE12__begin_nodeB8ne180100Ev, symObjAddr: 0x2180, symBinAddr: 0x100002FF0, symSize: 0x10 }
  - { offset: 0x203FF, size: 0x8, addend: 0x0, symName: __ZNSt3__117__compressed_pairINS_15__tree_end_nodeIPNS_16__tree_node_baseIPvEEEENS_9allocatorINS_11__tree_nodeINS_12__value_typeIi4DataEES3_EEEEEC2B8ne180100ILb1EvEEv, symObjAddr: 0x2190, symBinAddr: 0x100003000, symSize: 0x30 }
  - { offset: 0x20434, size: 0x8, addend: 0x0, symName: __ZNSt3__122__compressed_pair_elemINS_15__tree_end_nodeIPNS_16__tree_node_baseIPvEEEELi0ELb0EEC2B8ne180100ENS_16__value_init_tagE, symObjAddr: 0x21C0, symBinAddr: 0x100003030, symSize: 0x20 }
  - { offset: 0x20468, size: 0x8, addend: 0x0, symName: __ZNSt3__122__compressed_pair_elemINS_9allocatorINS_11__tree_nodeINS_12__value_typeIi4DataEEPvEEEELi1ELb1EEC2B8ne180100ENS_16__value_init_tagE, symObjAddr: 0x21E0, symBinAddr: 0x100003050, symSize: 0x20 }
  - { offset: 0x2049C, size: 0x8, addend: 0x0, symName: __ZNSt3__115__tree_end_nodeIPNS_16__tree_node_baseIPvEEEC1B8ne180100Ev, symObjAddr: 0x2200, symBinAddr: 0x100003070, symSize: 0x20 }
  - { offset: 0x204C6, size: 0x8, addend: 0x0, symName: __ZNSt3__115__tree_end_nodeIPNS_16__tree_node_baseIPvEEEC2B8ne180100Ev, symObjAddr: 0x2220, symBinAddr: 0x100003090, symSize: 0x20 }
  - { offset: 0x204F0, size: 0x8, addend: 0x0, symName: __ZNSt3__19allocatorINS_11__tree_nodeINS_12__value_typeIi4DataEEPvEEEC2B8ne180100Ev, symObjAddr: 0x2240, symBinAddr: 0x1000030B0, symSize: 0x20 }
  - { offset: 0x2051A, size: 0x8, addend: 0x0, symName: __ZNSt3__116__non_trivial_ifILb1ENS_9allocatorINS_11__tree_nodeINS_12__value_typeIi4DataEEPvEEEEEC2B8ne180100Ev, symObjAddr: 0x2260, symBinAddr: 0x1000030D0, symSize: 0x10 }
  - { offset: 0x20544, size: 0x8, addend: 0x0, symName: __ZNSt3__117__compressed_pairImNS_19__map_value_compareIiNS_12__value_typeIi4DataEENS_4lessIiEELb1EEEEC2B8ne180100IiRKS7_EEOT_OT0_, symObjAddr: 0x2270, symBinAddr: 0x1000030E0, symSize: 0x40 }
  - { offset: 0x2059C, size: 0x8, addend: 0x0, symName: __ZNSt3__122__compressed_pair_elemImLi0ELb0EEC2B8ne180100IivEEOT_, symObjAddr: 0x22B0, symBinAddr: 0x100003120, symSize: 0x20 }
  - { offset: 0x205DE, size: 0x8, addend: 0x0, symName: __ZNSt3__122__compressed_pair_elemINS_19__map_value_compareIiNS_12__value_typeIi4DataEENS_4lessIiEELb1EEELi1ELb1EEC2B8ne180100IRKS7_vEEOT_, symObjAddr: 0x22D0, symBinAddr: 0x100003140, symSize: 0x10 }
  - { offset: 0x20620, size: 0x8, addend: 0x0, symName: __ZNSt3__114pointer_traitsIPNS_15__tree_end_nodeIPNS_16__tree_node_baseIPvEEEEE10pointer_toB8ne180100ERS6_, symObjAddr: 0x22E0, symBinAddr: 0x100003150, symSize: 0x10 }
  - { offset: 0x20643, size: 0x8, addend: 0x0, symName: __ZNSt3__117__compressed_pairINS_15__tree_end_nodeIPNS_16__tree_node_baseIPvEEEENS_9allocatorINS_11__tree_nodeINS_12__value_typeIi4DataEES3_EEEEE5firstB8ne180100Ev, symObjAddr: 0x22F0, symBinAddr: 0x100003160, symSize: 0x20 }
  - { offset: 0x20669, size: 0x8, addend: 0x0, symName: __ZNSt3__122__compressed_pair_elemINS_15__tree_end_nodeIPNS_16__tree_node_baseIPvEEEELi0ELb0EE5__getB8ne180100Ev, symObjAddr: 0x2310, symBinAddr: 0x100003180, symSize: 0x10 }
  - { offset: 0x2068F, size: 0x8, addend: 0x0, symName: __ZNSt3__112basic_stringIcNS_11char_traitsIcEENS_9allocatorIcEEEC1B8ne180100EOS5_, symObjAddr: 0x2320, symBinAddr: 0x100003190, symSize: 0x30 }
  - { offset: 0x206C8, size: 0x8, addend: 0x0, symName: __ZNSt3__112basic_stringIcNS_11char_traitsIcEENS_9allocatorIcEEEC2B8ne180100EOS5_, symObjAddr: 0x2350, symBinAddr: 0x1000031C0, symSize: 0xD0 }
  - { offset: 0x20732, size: 0x8, addend: 0x0, symName: __ZZNSt3__112basic_stringIcNS_11char_traitsIcEENS_9allocatorIcEEEC1B8ne180100EOS5_ENKUlRS5_E_clES7_, symObjAddr: 0x2420, symBinAddr: 0x100003290, symSize: 0x40 }
  - { offset: 0x2076B, size: 0x8, addend: 0x0, symName: __ZNSt3__117__compressed_pairINS_12basic_stringIcNS_11char_traitsIcEENS_9allocatorIcEEE5__repES5_E5firstB8ne180100Ev, symObjAddr: 0x2460, symBinAddr: 0x1000032D0, symSize: 0x20 }
  - { offset: 0x20791, size: 0x8, addend: 0x0, symName: __ZNKSt3__112basic_stringIcNS_11char_traitsIcEENS_9allocatorIcEEE14__annotate_newB8ne180100Em, symObjAddr: 0x2480, symBinAddr: 0x1000032F0, symSize: 0x10 }
  - { offset: 0x207C6, size: 0x8, addend: 0x0, symName: __ZNKSt3__112basic_stringIcNS_11char_traitsIcEENS_9allocatorIcEEE9__is_longB8ne180100Ev, symObjAddr: 0x2490, symBinAddr: 0x100003300, symSize: 0x30 }
  - { offset: 0x207EC, size: 0x8, addend: 0x0, symName: __ZNKSt3__112basic_stringIcNS_11char_traitsIcEENS_9allocatorIcEEE4sizeB8ne180100Ev, symObjAddr: 0x24C0, symBinAddr: 0x100003330, symSize: 0x50 }
  - { offset: 0x20812, size: 0x8, addend: 0x0, symName: __ZNKSt3__112basic_stringIcNS_11char_traitsIcEENS_9allocatorIcEEE17__annotate_deleteB8ne180100Ev, symObjAddr: 0x2510, symBinAddr: 0x100003380, symSize: 0x10 }
  - { offset: 0x20838, size: 0x8, addend: 0x0, symName: __ZNSt3__122__compressed_pair_elemINS_12basic_stringIcNS_11char_traitsIcEENS_9allocatorIcEEE5__repELi0ELb0EE5__getB8ne180100Ev, symObjAddr: 0x2520, symBinAddr: 0x100003390, symSize: 0x10 }
  - { offset: 0x2085E, size: 0x8, addend: 0x0, symName: __ZNKSt3__117__compressed_pairINS_12basic_stringIcNS_11char_traitsIcEENS_9allocatorIcEEE5__repES5_E5firstB8ne180100Ev, symObjAddr: 0x2530, symBinAddr: 0x1000033A0, symSize: 0x20 }
  - { offset: 0x20884, size: 0x8, addend: 0x0, symName: __ZNKSt3__122__compressed_pair_elemINS_12basic_stringIcNS_11char_traitsIcEENS_9allocatorIcEEE5__repELi0ELb0EE5__getB8ne180100Ev, symObjAddr: 0x2550, symBinAddr: 0x1000033C0, symSize: 0x10 }
  - { offset: 0x208AA, size: 0x8, addend: 0x0, symName: __ZNKSt3__112basic_stringIcNS_11char_traitsIcEENS_9allocatorIcEEE15__get_long_sizeB8ne180100Ev, symObjAddr: 0x2560, symBinAddr: 0x1000033D0, symSize: 0x20 }
  - { offset: 0x208D0, size: 0x8, addend: 0x0, symName: __ZNKSt3__112basic_stringIcNS_11char_traitsIcEENS_9allocatorIcEEE16__get_short_sizeB8ne180100Ev, symObjAddr: 0x2580, symBinAddr: 0x1000033F0, symSize: 0x30 }
  - { offset: 0x208F6, size: 0x8, addend: 0x0, symName: __ZNSt3__112basic_stringIcNS_11char_traitsIcEENS_9allocatorIcEEE6appendB8ne180100ERKS5_, symObjAddr: 0x25B0, symBinAddr: 0x100003420, symSize: 0x50 }
  - { offset: 0x2092B, size: 0x8, addend: 0x0, symName: __ZNKSt3__112basic_stringIcNS_11char_traitsIcEENS_9allocatorIcEEE4dataB8ne180100Ev, symObjAddr: 0x2600, symBinAddr: 0x100003470, symSize: 0x30 }
  - { offset: 0x20951, size: 0x8, addend: 0x0, symName: __ZNKSt3__112basic_stringIcNS_11char_traitsIcEENS_9allocatorIcEEE13__get_pointerB8ne180100Ev, symObjAddr: 0x2640, symBinAddr: 0x1000034B0, symSize: 0x50 }
  - { offset: 0x20977, size: 0x8, addend: 0x0, symName: __ZNKSt3__112basic_stringIcNS_11char_traitsIcEENS_9allocatorIcEEE18__get_long_pointerB8ne180100Ev, symObjAddr: 0x2690, symBinAddr: 0x100003500, symSize: 0x20 }
  - { offset: 0x2099D, size: 0x8, addend: 0x0, symName: __ZNKSt3__112basic_stringIcNS_11char_traitsIcEENS_9allocatorIcEEE19__get_short_pointerB8ne180100Ev, symObjAddr: 0x26B0, symBinAddr: 0x100003520, symSize: 0x30 }
  - { offset: 0x209C3, size: 0x8, addend: 0x0, symName: __ZNSt3__114pointer_traitsIPKcE10pointer_toB8ne180100ERS1_, symObjAddr: 0x26E0, symBinAddr: 0x100003550, symSize: 0x10 }
  - { offset: 0x209E6, size: 0x8, addend: 0x0, symName: __ZNSt3__111char_traitsIcE6lengthB8ne180100EPKc, symObjAddr: 0x26F0, symBinAddr: 0x100003560, symSize: 0x30 }
  - { offset: 0x20A14, size: 0x8, addend: 0x0, symName: __ZNSt3__116allocator_traitsINS_9allocatorIcEEE37select_on_container_copy_constructionB8ne180100IS2_vvEES2_RKS2_, symObjAddr: 0x2720, symBinAddr: 0x100003590, symSize: 0x10 }
  - { offset: 0x20A43, size: 0x8, addend: 0x0, symName: __ZNKSt3__112basic_stringIcNS_11char_traitsIcEENS_9allocatorIcEEE13get_allocatorB8ne180100Ev, symObjAddr: 0x2730, symBinAddr: 0x1000035A0, symSize: 0x20 }
  - { offset: 0x20A69, size: 0x8, addend: 0x0, symName: __ZNSt3__112basic_stringIcNS_11char_traitsIcEENS_9allocatorIcEEEC1B8ne180100ENS_24__uninitialized_size_tagEmRKS4_, symObjAddr: 0x2750, symBinAddr: 0x1000035C0, symSize: 0x30 }
  - { offset: 0x20ABC, size: 0x8, addend: 0x0, symName: __ZNSt3__112basic_stringIcNS_11char_traitsIcEENS_9allocatorIcEEE13__get_pointerB8ne180100Ev, symObjAddr: 0x2790, symBinAddr: 0x100003600, symSize: 0x50 }
  - { offset: 0x20AE2, size: 0x8, addend: 0x0, symName: __ZNSt3__111char_traitsIcE4copyB8ne180100EPcPKcm, symObjAddr: 0x27E0, symBinAddr: 0x100003650, symSize: 0x40 }
  - { offset: 0x20B21, size: 0x8, addend: 0x0, symName: __ZNSt3__111char_traitsIcE6assignB8ne180100EPcmc, symObjAddr: 0x2820, symBinAddr: 0x100003690, symSize: 0x40 }
  - { offset: 0x20B60, size: 0x8, addend: 0x0, symName: __ZNKSt3__112basic_stringIcNS_11char_traitsIcEENS_9allocatorIcEEE7__allocB8ne180100Ev, symObjAddr: 0x2880, symBinAddr: 0x1000036F0, symSize: 0x20 }
  - { offset: 0x20B86, size: 0x8, addend: 0x0, symName: __ZNKSt3__117__compressed_pairINS_12basic_stringIcNS_11char_traitsIcEENS_9allocatorIcEEE5__repES5_E6secondB8ne180100Ev, symObjAddr: 0x28A0, symBinAddr: 0x100003710, symSize: 0x20 }
  - { offset: 0x20BAC, size: 0x8, addend: 0x0, symName: __ZNKSt3__122__compressed_pair_elemINS_9allocatorIcEELi1ELb1EE5__getB8ne180100Ev, symObjAddr: 0x28C0, symBinAddr: 0x100003730, symSize: 0x10 }
  - { offset: 0x20BD2, size: 0x8, addend: 0x0, symName: __ZNSt3__112basic_stringIcNS_11char_traitsIcEENS_9allocatorIcEEEC2B8ne180100ENS_24__uninitialized_size_tagEmRKS4_, symObjAddr: 0x28D0, symBinAddr: 0x100003740, symSize: 0x120 }
  - { offset: 0x20C59, size: 0x8, addend: 0x0, symName: __ZNSt3__117__compressed_pairINS_12basic_stringIcNS_11char_traitsIcEENS_9allocatorIcEEE5__repES5_EC1B8ne180100INS_18__default_init_tagERKS5_EEOT_OT0_, symObjAddr: 0x29F0, symBinAddr: 0x100003860, symSize: 0x30 }
  - { offset: 0x20CB1, size: 0x8, addend: 0x0, symName: __ZNKSt3__112basic_stringIcNS_11char_traitsIcEENS_9allocatorIcEEE8max_sizeB8ne180100Ev, symObjAddr: 0x2A20, symBinAddr: 0x100003890, symSize: 0xA0 }
  - { offset: 0x20D03, size: 0x8, addend: 0x0, symName: __ZNKSt3__112basic_stringIcNS_11char_traitsIcEENS_9allocatorIcEEE20__throw_length_errorB8ne180100Ev, symObjAddr: 0x2AC0, symBinAddr: 0x100003930, symSize: 0x20 }
  - { offset: 0x20D29, size: 0x8, addend: 0x0, symName: __ZNSt3__112basic_stringIcNS_11char_traitsIcEENS_9allocatorIcEEE13__fits_in_ssoB8ne180100Em, symObjAddr: 0x2AE0, symBinAddr: 0x100003950, symSize: 0x20 }
  - { offset: 0x20D4D, size: 0x8, addend: 0x0, symName: __ZNSt3__112basic_stringIcNS_11char_traitsIcEENS_9allocatorIcEEE16__set_short_sizeB8ne180100Em, symObjAddr: 0x2B00, symBinAddr: 0x100003970, symSize: 0x50 }
  - { offset: 0x20D82, size: 0x8, addend: 0x0, symName: __ZNSt3__112basic_stringIcNS_11char_traitsIcEENS_9allocatorIcEEE11__recommendB8ne180100Em, symObjAddr: 0x2B50, symBinAddr: 0x1000039C0, symSize: 0x70 }
  - { offset: 0x20DB5, size: 0x8, addend: 0x0, symName: __ZNSt3__116allocator_traitsINS_9allocatorIcEEE8allocateB8ne180100ERS2_m, symObjAddr: 0x2BC0, symBinAddr: 0x100003A30, symSize: 0x30 }
  - { offset: 0x20DE8, size: 0x8, addend: 0x0, symName: __ZNSt3__112basic_stringIcNS_11char_traitsIcEENS_9allocatorIcEEE7__allocB8ne180100Ev, symObjAddr: 0x2BF0, symBinAddr: 0x100003A60, symSize: 0x20 }
  - { offset: 0x20E0E, size: 0x8, addend: 0x0, symName: __ZNSt3__112basic_stringIcNS_11char_traitsIcEENS_9allocatorIcEEE16__begin_lifetimeB8ne180100EPcm, symObjAddr: 0x2C10, symBinAddr: 0x100003A80, symSize: 0x10 }
  - { offset: 0x20E41, size: 0x8, addend: 0x0, symName: __ZNSt3__112basic_stringIcNS_11char_traitsIcEENS_9allocatorIcEEE14__set_long_capB8ne180100Em, symObjAddr: 0x2C20, symBinAddr: 0x100003A90, symSize: 0x70 }
  - { offset: 0x20E76, size: 0x8, addend: 0x0, symName: __ZNSt3__112basic_stringIcNS_11char_traitsIcEENS_9allocatorIcEEE18__set_long_pointerB8ne180100EPc, symObjAddr: 0x2C90, symBinAddr: 0x100003B00, symSize: 0x30 }
  - { offset: 0x20EAB, size: 0x8, addend: 0x0, symName: __ZNSt3__112basic_stringIcNS_11char_traitsIcEENS_9allocatorIcEEE15__set_long_sizeB8ne180100Em, symObjAddr: 0x2CC0, symBinAddr: 0x100003B30, symSize: 0x30 }
  - { offset: 0x20EE0, size: 0x8, addend: 0x0, symName: __ZNSt3__117__compressed_pairINS_12basic_stringIcNS_11char_traitsIcEENS_9allocatorIcEEE5__repES5_EC2B8ne180100INS_18__default_init_tagERKS5_EEOT_OT0_, symObjAddr: 0x2CF0, symBinAddr: 0x100003B60, symSize: 0x40 }
  - { offset: 0x20F38, size: 0x8, addend: 0x0, symName: __ZNSt3__122__compressed_pair_elemINS_12basic_stringIcNS_11char_traitsIcEENS_9allocatorIcEEE5__repELi0ELb0EEC2B8ne180100ENS_18__default_init_tagE, symObjAddr: 0x2D30, symBinAddr: 0x100003BA0, symSize: 0x10 }
  - { offset: 0x20F6C, size: 0x8, addend: 0x0, symName: __ZNSt3__122__compressed_pair_elemINS_9allocatorIcEELi1ELb1EEC2B8ne180100IRKS2_vEEOT_, symObjAddr: 0x2D40, symBinAddr: 0x100003BB0, symSize: 0x10 }
  - { offset: 0x20FAE, size: 0x8, addend: 0x0, symName: __ZNSt3__116allocator_traitsINS_9allocatorIcEEE8max_sizeB8ne180100IS2_vEEmRKS2_, symObjAddr: 0x2D50, symBinAddr: 0x100003BC0, symSize: 0x20 }
  - { offset: 0x20FDC, size: 0x8, addend: 0x0, symName: __ZNSt3__114numeric_limitsImE3maxB8ne180100Ev, symObjAddr: 0x2D70, symBinAddr: 0x100003BE0, symSize: 0x10 }
  - { offset: 0x20FF0, size: 0x8, addend: 0x0, symName: __ZNKSt3__19allocatorIcE8max_sizeB8ne180100Ev, symObjAddr: 0x2D80, symBinAddr: 0x100003BF0, symSize: 0x20 }
  - { offset: 0x21016, size: 0x8, addend: 0x0, symName: __ZNSt3__123__libcpp_numeric_limitsImLb1EE3maxB8ne180100Ev, symObjAddr: 0x2DA0, symBinAddr: 0x100003C10, symSize: 0x10 }
  - { offset: 0x2102A, size: 0x8, addend: 0x0, symName: __ZNSt12length_errorC1B8ne180100EPKc, symObjAddr: 0x2E20, symBinAddr: 0x100003C90, symSize: 0x30 }
  - { offset: 0x21062, size: 0x8, addend: 0x0, symName: __ZNSt12length_errorC2B8ne180100EPKc, symObjAddr: 0x2E50, symBinAddr: 0x100003CC0, symSize: 0x40 }
  - { offset: 0x2109A, size: 0x8, addend: 0x0, symName: __ZNSt3__112basic_stringIcNS_11char_traitsIcEENS_9allocatorIcEEE10__align_itB8ne180100ILm8EEEmm, symObjAddr: 0x2E90, symBinAddr: 0x100003D00, symSize: 0x20 }
  - { offset: 0x210C8, size: 0x8, addend: 0x0, symName: __ZNSt3__19allocatorIcE8allocateB8ne180100Em, symObjAddr: 0x2EB0, symBinAddr: 0x100003D20, symSize: 0x50 }
  - { offset: 0x210FC, size: 0x8, addend: 0x0, symName: __ZNSt3__117__compressed_pairINS_12basic_stringIcNS_11char_traitsIcEENS_9allocatorIcEEE5__repES5_E6secondB8ne180100Ev, symObjAddr: 0x3010, symBinAddr: 0x100003E80, symSize: 0x20 }
  - { offset: 0x21122, size: 0x8, addend: 0x0, symName: __ZNSt3__122__compressed_pair_elemINS_9allocatorIcEELi1ELb1EE5__getB8ne180100Ev, symObjAddr: 0x3030, symBinAddr: 0x100003EA0, symSize: 0x10 }
  - { offset: 0x21148, size: 0x8, addend: 0x0, symName: __ZNSt3__112basic_stringIcNS_11char_traitsIcEENS_9allocatorIcEEE18__get_long_pointerB8ne180100Ev, symObjAddr: 0x3040, symBinAddr: 0x100003EB0, symSize: 0x20 }
  - { offset: 0x2116E, size: 0x8, addend: 0x0, symName: __ZNSt3__112basic_stringIcNS_11char_traitsIcEENS_9allocatorIcEEE19__get_short_pointerB8ne180100Ev, symObjAddr: 0x3060, symBinAddr: 0x100003ED0, symSize: 0x30 }
  - { offset: 0x21194, size: 0x8, addend: 0x0, symName: __ZNSt3__114pointer_traitsIPcE10pointer_toB8ne180100ERc, symObjAddr: 0x3090, symBinAddr: 0x100003F00, symSize: 0x10 }
  - { offset: 0x211DD, size: 0x8, addend: 0x0, symName: __ZNKSt3__114__copy_trivialclB8ne180100IKccTnNS_9enable_ifIXsr38__can_lower_copy_assignment_to_memmoveIT_T0_EE5valueEiE4typeELi0EEENS_4pairIPS4_PS5_EES9_S9_SA_, symObjAddr: 0x32A0, symBinAddr: 0x100004110, symSize: 0x40 }
  - { offset: 0x21267, size: 0x8, addend: 0x0, symName: __ZNSt3__14pairIPKcS2_EC1B8ne180100IS2_S2_TnNS_9enable_ifIXclsr10_CheckArgsE17__enable_implicitIT_T0_EEEiE4typeELi0EEEOS6_OS7_, symObjAddr: 0x33F0, symBinAddr: 0x100004260, symSize: 0x30 }
  - { offset: 0x212C5, size: 0x8, addend: 0x0, symName: __ZNSt3__14pairIPKcS2_EC2B8ne180100IS2_S2_TnNS_9enable_ifIXclsr10_CheckArgsE17__enable_implicitIT_T0_EEEiE4typeELi0EEEOS6_OS7_, symObjAddr: 0x3420, symBinAddr: 0x100004290, symSize: 0x30 }
  - { offset: 0x21323, size: 0x8, addend: 0x0, symName: __ZNSt3__118__unwrap_iter_implIPKcLb1EE8__unwrapB8ne180100ES2_, symObjAddr: 0x3450, symBinAddr: 0x1000042C0, symSize: 0x20 }
  - { offset: 0x21352, size: 0x8, addend: 0x0, symName: __ZNSt3__14pairIPKcPcEC1B8ne180100IRS2_S3_TnNS_9enable_ifIXclsr10_CheckArgsE17__enable_implicitIT_T0_EEEiE4typeELi0EEEOS8_OS9_, symObjAddr: 0x3560, symBinAddr: 0x1000043D0, symSize: 0x30 }
  - { offset: 0x213B0, size: 0x8, addend: 0x0, symName: __ZNSt3__14pairIPKcPcEC2B8ne180100IRS2_S3_TnNS_9enable_ifIXclsr10_CheckArgsE17__enable_implicitIT_T0_EEEiE4typeELi0EEEOS8_OS9_, symObjAddr: 0x3590, symBinAddr: 0x100004400, symSize: 0x30 }
  - { offset: 0x2140E, size: 0x8, addend: 0x0, symName: __ZNSt3__118__unwrap_iter_implIPcLb1EE8__unwrapB8ne180100ES1_, symObjAddr: 0x35C0, symBinAddr: 0x100004430, symSize: 0x20 }
  - { offset: 0x21431, size: 0x8, addend: 0x0, symName: __ZNSt3__14pairIPKcPcEC1B8ne180100IS2_S3_TnNS_9enable_ifIXclsr10_CheckArgsE17__enable_implicitIT_T0_EEEiE4typeELi0EEEOS7_OS8_, symObjAddr: 0x35E0, symBinAddr: 0x100004450, symSize: 0x30 }
  - { offset: 0x2148F, size: 0x8, addend: 0x0, symName: __ZNSt3__14pairIPKcPcEC2B8ne180100IS2_S3_TnNS_9enable_ifIXclsr10_CheckArgsE17__enable_implicitIT_T0_EEEiE4typeELi0EEEOS7_OS8_, symObjAddr: 0x3610, symBinAddr: 0x100004480, symSize: 0x30 }
  - { offset: 0x214ED, size: 0x8, addend: 0x0, symName: __ZNSt3__118__unwrap_iter_implIPKcLb1EE8__rewrapB8ne180100ES2_S2_, symObjAddr: 0x3680, symBinAddr: 0x1000044F0, symSize: 0x40 }
  - { offset: 0x2151E, size: 0x8, addend: 0x0, symName: __ZNSt3__118__unwrap_iter_implIPcLb1EE8__rewrapB8ne180100ES1_S1_, symObjAddr: 0x36C0, symBinAddr: 0x100004530, symSize: 0x40 }
  - { offset: 0x2154F, size: 0x8, addend: 0x0, symName: __ZNSt3__19basic_iosIcNS_11char_traitsIcEEEC2B8ne180100Ev, symObjAddr: 0x37A0, symBinAddr: 0x100004610, symSize: 0x40 }
  - { offset: 0x21579, size: 0x8, addend: 0x0, symName: __ZNSt3__113basic_istreamIcNS_11char_traitsIcEEEC2B8ne180100EPNS_15basic_streambufIcS2_EE, symObjAddr: 0x37E0, symBinAddr: 0x100004650, symSize: 0x50 }
  - { offset: 0x215BE, size: 0x8, addend: 0x0, symName: __ZNSt3__113basic_filebufIcNS_11char_traitsIcEEE4openERKNS_12basic_stringIcS2_NS_9allocatorIcEEEEj, symObjAddr: 0x3830, symBinAddr: 0x1000046A0, symSize: 0x40 }
  - { offset: 0x21602, size: 0x8, addend: 0x0, symName: __ZNSt3__19basic_iosIcNS_11char_traitsIcEEE8setstateB8ne180100Ej, symObjAddr: 0x3870, symBinAddr: 0x1000046E0, symSize: 0x30 }
  - { offset: 0x21637, size: 0x8, addend: 0x0, symName: __ZNSt3__18ios_baseC2B8ne180100Ev, symObjAddr: 0x38A0, symBinAddr: 0x100004710, symSize: 0x20 }
  - { offset: 0x21661, size: 0x8, addend: 0x0, symName: __ZNSt3__19basic_iosIcNS_11char_traitsIcEEE4initB8ne180100EPNS_15basic_streambufIcS2_EE, symObjAddr: 0x38C0, symBinAddr: 0x100004730, symSize: 0x50 }
  - { offset: 0x21696, size: 0x8, addend: 0x0, symName: __ZNSt3__111char_traitsIcE3eofB8ne180100Ev, symObjAddr: 0x3910, symBinAddr: 0x100004780, symSize: 0x10 }
  - { offset: 0x216AA, size: 0x8, addend: 0x0, symName: __ZNKSt3__112basic_stringIcNS_11char_traitsIcEENS_9allocatorIcEEE5c_strB8ne180100Ev, symObjAddr: 0x3920, symBinAddr: 0x100004790, symSize: 0x20 }
  - { offset: 0x216D0, size: 0x8, addend: 0x0, symName: __ZNSt3__18ios_base8setstateB8ne180100Ej, symObjAddr: 0x3940, symBinAddr: 0x1000047B0, symSize: 0x30 }
  - { offset: 0x21707, size: 0x8, addend: 0x0, symName: __ZNKSt3__19basic_iosIcNS_11char_traitsIcEEE4failB8ne180100Ev, symObjAddr: 0x3970, symBinAddr: 0x1000047E0, symSize: 0x20 }
  - { offset: 0x2172D, size: 0x8, addend: 0x0, symName: __ZNKSt3__18ios_base4failB8ne180100Ev, symObjAddr: 0x3990, symBinAddr: 0x100004800, symSize: 0x20 }
  - { offset: 0x21755, size: 0x8, addend: 0x0, symName: __ZNSt3__112basic_stringIcNS_11char_traitsIcEENS_9allocatorIcEEEC2B8ne180100Ev, symObjAddr: 0x39B0, symBinAddr: 0x100004820, symSize: 0x50 }
  - { offset: 0x21785, size: 0x8, addend: 0x0, symName: __ZNSt3__117__compressed_pairINS_12basic_stringIcNS_11char_traitsIcEENS_9allocatorIcEEE5__repES5_EC1B8ne180100INS_16__value_init_tagENS_18__default_init_tagEEEOT_OT0_, symObjAddr: 0x3A00, symBinAddr: 0x100004870, symSize: 0x30 }
  - { offset: 0x217DD, size: 0x8, addend: 0x0, symName: __ZNSt3__117__compressed_pairINS_12basic_stringIcNS_11char_traitsIcEENS_9allocatorIcEEE5__repES5_EC2B8ne180100INS_16__value_init_tagENS_18__default_init_tagEEEOT_OT0_, symObjAddr: 0x3A30, symBinAddr: 0x1000048A0, symSize: 0x30 }
  - { offset: 0x21835, size: 0x8, addend: 0x0, symName: __ZNSt3__122__compressed_pair_elemINS_12basic_stringIcNS_11char_traitsIcEENS_9allocatorIcEEE5__repELi0ELb0EEC2B8ne180100ENS_16__value_init_tagE, symObjAddr: 0x3A60, symBinAddr: 0x1000048D0, symSize: 0x30 }
  - { offset: 0x21869, size: 0x8, addend: 0x0, symName: __ZNSt3__122__compressed_pair_elemINS_9allocatorIcEELi1ELb1EEC2B8ne180100ENS_18__default_init_tagE, symObjAddr: 0x3A90, symBinAddr: 0x100004900, symSize: 0x20 }
  - { offset: 0x2189D, size: 0x8, addend: 0x0, symName: __ZNSt3__19allocatorIcEC2B8ne180100Ev, symObjAddr: 0x3AB0, symBinAddr: 0x100004920, symSize: 0x20 }
  - { offset: 0x218C7, size: 0x8, addend: 0x0, symName: __ZNSt3__116__non_trivial_ifILb1ENS_9allocatorIcEEEC2B8ne180100Ev, symObjAddr: 0x3AD0, symBinAddr: 0x100004940, symSize: 0x10 }
  - { offset: 0x21912, size: 0x8, addend: 0x0, symName: __ZNKSt3__113basic_istreamIcNS_11char_traitsIcEEE6sentrycvbB8ne180100Ev, symObjAddr: 0x3AE0, symBinAddr: 0x100004950, symSize: 0x20 }
  - { offset: 0x21938, size: 0x8, addend: 0x0, symName: __ZNSt3__112basic_stringIcNS_11char_traitsIcEENS_9allocatorIcEEE5clearB8ne180100Ev, symObjAddr: 0x3B00, symBinAddr: 0x100004970, symSize: 0xA0 }
  - { offset: 0x2196F, size: 0x8, addend: 0x0, symName: __ZNKSt3__19basic_iosIcNS_11char_traitsIcEEE5rdbufB8ne180100Ev, symObjAddr: 0x3BA0, symBinAddr: 0x100004A10, symSize: 0x20 }
  - { offset: 0x21995, size: 0x8, addend: 0x0, symName: __ZNSt3__115basic_streambufIcNS_11char_traitsIcEEE6sbumpcB8ne180100Ev, symObjAddr: 0x3BC0, symBinAddr: 0x100004A30, symSize: 0x60 }
  - { offset: 0x219BB, size: 0x8, addend: 0x0, symName: __ZNSt3__111char_traitsIcE11eq_int_typeB8ne180100Eii, symObjAddr: 0x3C20, symBinAddr: 0x100004A90, symSize: 0x20 }
  - { offset: 0x219EE, size: 0x8, addend: 0x0, symName: __ZNSt3__111char_traitsIcE12to_char_typeB8ne180100Ei, symObjAddr: 0x3C40, symBinAddr: 0x100004AB0, symSize: 0x10 }
  - { offset: 0x21A12, size: 0x8, addend: 0x0, symName: __ZNSt3__111char_traitsIcE2eqEcc, symObjAddr: 0x3C50, symBinAddr: 0x100004AC0, symSize: 0x30 }
  - { offset: 0x21A43, size: 0x8, addend: 0x0, symName: __ZNSt3__18ios_base18__setstate_nothrowB8ne180100Ej, symObjAddr: 0x3C80, symBinAddr: 0x100004AF0, symSize: 0x50 }
  - { offset: 0x21A78, size: 0x8, addend: 0x0, symName: __ZNKSt3__19basic_iosIcNS_11char_traitsIcEEE10exceptionsB8ne180100Ev, symObjAddr: 0x3CD0, symBinAddr: 0x100004B40, symSize: 0x20 }
  - { offset: 0x21A9E, size: 0x8, addend: 0x0, symName: __ZNSt3__111char_traitsIcE6assignB8ne180100ERcRKc, symObjAddr: 0x3CF0, symBinAddr: 0x100004B60, symSize: 0x20 }
  - { offset: 0x21ACF, size: 0x8, addend: 0x0, symName: __ZNKSt3__112basic_stringIcNS_11char_traitsIcEENS_9allocatorIcEEE17__annotate_shrinkB8ne180100Em, symObjAddr: 0x3D10, symBinAddr: 0x100004B80, symSize: 0x10 }
  - { offset: 0x21B04, size: 0x8, addend: 0x0, symName: __ZNKSt3__18ios_base5rdbufB8ne180100Ev, symObjAddr: 0x3D20, symBinAddr: 0x100004B90, symSize: 0x20 }
  - { offset: 0x21B2A, size: 0x8, addend: 0x0, symName: __ZNSt3__111char_traitsIcE11to_int_typeB8ne180100Ec, symObjAddr: 0x3D40, symBinAddr: 0x100004BB0, symSize: 0x10 }
  - { offset: 0x21B4E, size: 0x8, addend: 0x0, symName: __ZNKSt3__18ios_base10exceptionsB8ne180100Ev, symObjAddr: 0x3D50, symBinAddr: 0x100004BC0, symSize: 0x20 }
  - { offset: 0x21B8D, size: 0x8, addend: 0x0, symName: __ZNSt3__16__treeINS_12__value_typeIi4DataEENS_19__map_value_compareIiS3_NS_4lessIiEELb1EEENS_9allocatorIS3_EEE25__emplace_unique_key_argsIiJRKNS_21piecewise_construct_tENS_5tupleIJRKiEEENSF_IJEEEEEENS_4pairINS_15__tree_iteratorIS3_PNS_11__tree_nodeIS3_PvEElEEbEERKT_DpOT0_, symObjAddr: 0x3D70, symBinAddr: 0x100004BE0, symSize: 0x100 }
  - { offset: 0x21C6A, size: 0x8, addend: 0x0, symName: __ZNKSt3__115__tree_iteratorINS_12__value_typeIi4DataEEPNS_11__tree_nodeIS3_PvEElEptB8ne180100Ev, symObjAddr: 0x3EB0, symBinAddr: 0x100004D20, symSize: 0x30 }
  - { offset: 0x21C90, size: 0x8, addend: 0x0, symName: __ZNSt3__112__value_typeIi4DataE11__get_valueB8ne180100Ev, symObjAddr: 0x3EE0, symBinAddr: 0x100004D50, symSize: 0x20 }
  - { offset: 0x21CB6, size: 0x8, addend: 0x0, symName: __ZNSt3__16__treeINS_12__value_typeIi4DataEENS_19__map_value_compareIiS3_NS_4lessIiEELb1EEENS_9allocatorIS3_EEE12__find_equalIiEERPNS_16__tree_node_baseIPvEERPNS_15__tree_end_nodeISF_EERKT_, symObjAddr: 0x3F00, symBinAddr: 0x100004D70, symSize: 0x180 }
  - { offset: 0x21D21, size: 0x8, addend: 0x0, symName: __ZNSt3__16__treeINS_12__value_typeIi4DataEENS_19__map_value_compareIiS3_NS_4lessIiEELb1EEENS_9allocatorIS3_EEE16__construct_nodeIJRKNS_21piecewise_construct_tENS_5tupleIJRKiEEENSF_IJEEEEEENS_10unique_ptrINS_11__tree_nodeIS3_PvEENS_22__tree_node_destructorINS8_ISN_EEEEEEDpOT_, symObjAddr: 0x4080, symBinAddr: 0x100004EF0, symSize: 0x120 }
  - { offset: 0x21DA8, size: 0x8, addend: 0x0, symName: __ZNSt3__16__treeINS_12__value_typeIi4DataEENS_19__map_value_compareIiS3_NS_4lessIiEELb1EEENS_9allocatorIS3_EEE16__insert_node_atEPNS_15__tree_end_nodeIPNS_16__tree_node_baseIPvEEEERSF_SF_, symObjAddr: 0x41A0, symBinAddr: 0x100005010, symSize: 0xC0 }
  - { offset: 0x21DFD, size: 0x8, addend: 0x0, symName: __ZNKSt3__110unique_ptrINS_11__tree_nodeINS_12__value_typeIi4DataEEPvEENS_22__tree_node_destructorINS_9allocatorIS6_EEEEE3getB8ne180100Ev, symObjAddr: 0x4260, symBinAddr: 0x1000050D0, symSize: 0x20 }
  - { offset: 0x21E23, size: 0x8, addend: 0x0, symName: __ZNSt3__110unique_ptrINS_11__tree_nodeINS_12__value_typeIi4DataEEPvEENS_22__tree_node_destructorINS_9allocatorIS6_EEEEE7releaseB8ne180100Ev, symObjAddr: 0x4280, symBinAddr: 0x1000050F0, symSize: 0x40 }
  - { offset: 0x21E58, size: 0x8, addend: 0x0, symName: __ZNSt3__110unique_ptrINS_11__tree_nodeINS_12__value_typeIi4DataEEPvEENS_22__tree_node_destructorINS_9allocatorIS6_EEEEED1B8ne180100Ev, symObjAddr: 0x42C0, symBinAddr: 0x100005130, symSize: 0x20 }
  - { offset: 0x21E82, size: 0x8, addend: 0x0, symName: __ZNSt3__115__tree_iteratorINS_12__value_typeIi4DataEEPNS_11__tree_nodeIS3_PvEElEC1B8ne180100ES7_, symObjAddr: 0x42E0, symBinAddr: 0x100005150, symSize: 0x30 }
  - { offset: 0x21EC1, size: 0x8, addend: 0x0, symName: __ZNSt3__14pairINS_15__tree_iteratorINS_12__value_typeIi4DataEEPNS_11__tree_nodeIS4_PvEElEEbEC1B8ne180100IS9_RbTnNS_9enable_ifIXclsr10_CheckArgsE17__enable_implicitIT_T0_EEEiE4typeELi0EEEOSE_OSF_, symObjAddr: 0x4310, symBinAddr: 0x100005180, symSize: 0x30 }
  - { offset: 0x21F1F, size: 0x8, addend: 0x0, symName: __ZNKSt3__16__treeINS_12__value_typeIi4DataEENS_19__map_value_compareIiS3_NS_4lessIiEELb1EEENS_9allocatorIS3_EEE6__rootB8ne180100Ev, symObjAddr: 0x4340, symBinAddr: 0x1000051B0, symSize: 0x20 }
  - { offset: 0x21F45, size: 0x8, addend: 0x0, symName: __ZNKSt3__16__treeINS_12__value_typeIi4DataEENS_19__map_value_compareIiS3_NS_4lessIiEELb1EEENS_9allocatorIS3_EEE10__root_ptrB8ne180100Ev, symObjAddr: 0x4360, symBinAddr: 0x1000051D0, symSize: 0x20 }
  - { offset: 0x21F6B, size: 0x8, addend: 0x0, symName: __ZNSt3__16__treeINS_12__value_typeIi4DataEENS_19__map_value_compareIiS3_NS_4lessIiEELb1EEENS_9allocatorIS3_EEE10value_compB8ne180100Ev, symObjAddr: 0x4380, symBinAddr: 0x1000051F0, symSize: 0x20 }
  - { offset: 0x21F91, size: 0x8, addend: 0x0, symName: __ZNKSt3__119__map_value_compareIiNS_12__value_typeIi4DataEENS_4lessIiEELb1EEclB8ne180100ERKiRKS3_, symObjAddr: 0x43A0, symBinAddr: 0x100005210, symSize: 0x50 }
  - { offset: 0x21FD5, size: 0x8, addend: 0x0, symName: __ZNKSt3__119__map_value_compareIiNS_12__value_typeIi4DataEENS_4lessIiEELb1EEclB8ne180100ERKS3_RKi, symObjAddr: 0x43F0, symBinAddr: 0x100005260, symSize: 0x40 }
  - { offset: 0x22019, size: 0x8, addend: 0x0, symName: __ZNKSt3__16__treeINS_12__value_typeIi4DataEENS_19__map_value_compareIiS3_NS_4lessIiEELb1EEENS_9allocatorIS3_EEE10__end_nodeB8ne180100Ev, symObjAddr: 0x4430, symBinAddr: 0x1000052A0, symSize: 0x30 }
  - { offset: 0x2203F, size: 0x8, addend: 0x0, symName: __ZNKSt3__117__compressed_pairINS_15__tree_end_nodeIPNS_16__tree_node_baseIPvEEEENS_9allocatorINS_11__tree_nodeINS_12__value_typeIi4DataEES3_EEEEE5firstB8ne180100Ev, symObjAddr: 0x4460, symBinAddr: 0x1000052D0, symSize: 0x20 }
  - { offset: 0x22065, size: 0x8, addend: 0x0, symName: __ZNKSt3__122__compressed_pair_elemINS_15__tree_end_nodeIPNS_16__tree_node_baseIPvEEEELi0ELb0EE5__getB8ne180100Ev, symObjAddr: 0x4480, symBinAddr: 0x1000052F0, symSize: 0x10 }
  - { offset: 0x2208B, size: 0x8, addend: 0x0, symName: __ZNSt3__117__compressed_pairImNS_19__map_value_compareIiNS_12__value_typeIi4DataEENS_4lessIiEELb1EEEE6secondB8ne180100Ev, symObjAddr: 0x4490, symBinAddr: 0x100005300, symSize: 0x20 }
  - { offset: 0x220B1, size: 0x8, addend: 0x0, symName: __ZNSt3__122__compressed_pair_elemINS_19__map_value_compareIiNS_12__value_typeIi4DataEENS_4lessIiEELb1EEELi1ELb1EE5__getB8ne180100Ev, symObjAddr: 0x44B0, symBinAddr: 0x100005320, symSize: 0x10 }
  - { offset: 0x220D7, size: 0x8, addend: 0x0, symName: __ZNKSt3__14lessIiEclB8ne180100ERKiS3_, symObjAddr: 0x44C0, symBinAddr: 0x100005330, symSize: 0x30 }
  - { offset: 0x2211B, size: 0x8, addend: 0x0, symName: __ZNKSt3__112__value_typeIi4DataE11__get_valueB8ne180100Ev, symObjAddr: 0x44F0, symBinAddr: 0x100005360, symSize: 0x20 }
  - { offset: 0x22141, size: 0x8, addend: 0x0, symName: __ZNSt3__16__treeINS_12__value_typeIi4DataEENS_19__map_value_compareIiS3_NS_4lessIiEELb1EEENS_9allocatorIS3_EEE12__node_allocB8ne180100Ev, symObjAddr: 0x4540, symBinAddr: 0x1000053B0, symSize: 0x20 }
  - { offset: 0x22167, size: 0x8, addend: 0x0, symName: __ZNSt3__116allocator_traitsINS_9allocatorINS_11__tree_nodeINS_12__value_typeIi4DataEEPvEEEEE8allocateB8ne180100ERS8_m, symObjAddr: 0x4560, symBinAddr: 0x1000053D0, symSize: 0x30 }
  - { offset: 0x2219A, size: 0x8, addend: 0x0, symName: __ZNSt3__122__tree_node_destructorINS_9allocatorINS_11__tree_nodeINS_12__value_typeIi4DataEEPvEEEEEC1B8ne180100ERS8_b, symObjAddr: 0x4590, symBinAddr: 0x100005400, symSize: 0x40 }
  - { offset: 0x221E8, size: 0x8, addend: 0x0, symName: __ZNSt3__110unique_ptrINS_11__tree_nodeINS_12__value_typeIi4DataEEPvEENS_22__tree_node_destructorINS_9allocatorIS6_EEEEEC1B8ne180100ILb1EvEEPS6_NS_16__dependent_typeINS_27__unique_ptr_deleter_sfinaeISA_EEXT_EE20__good_rval_ref_typeE, symObjAddr: 0x45D0, symBinAddr: 0x100005440, symSize: 0x30 }
  - { offset: 0x22239, size: 0x8, addend: 0x0, symName: __ZNSt3__116allocator_traitsINS_9allocatorINS_11__tree_nodeINS_12__value_typeIi4DataEEPvEEEEE9constructB8ne180100INS_4pairIKiS4_EEJRKNS_21piecewise_construct_tENS_5tupleIJRSC_EEENSH_IJEEEEvEEvRS8_PT_DpOT0_, symObjAddr: 0x4600, symBinAddr: 0x100005470, symSize: 0x40 }
  - { offset: 0x222B8, size: 0x8, addend: 0x0, symName: __ZNSt3__122__tree_key_value_typesINS_12__value_typeIi4DataEEE9__get_ptrB8ne180100ERS3_, symObjAddr: 0x4640, symBinAddr: 0x1000054B0, symSize: 0x20 }
  - { offset: 0x222DC, size: 0x8, addend: 0x0, symName: __ZNKSt3__110unique_ptrINS_11__tree_nodeINS_12__value_typeIi4DataEEPvEENS_22__tree_node_destructorINS_9allocatorIS6_EEEEEptB8ne180100Ev, symObjAddr: 0x4660, symBinAddr: 0x1000054D0, symSize: 0x20 }
  - { offset: 0x22302, size: 0x8, addend: 0x0, symName: __ZNSt3__110unique_ptrINS_11__tree_nodeINS_12__value_typeIi4DataEEPvEENS_22__tree_node_destructorINS_9allocatorIS6_EEEEE11get_deleterB8ne180100Ev, symObjAddr: 0x4680, symBinAddr: 0x1000054F0, symSize: 0x20 }
  - { offset: 0x22328, size: 0x8, addend: 0x0, symName: __ZNSt3__117__compressed_pairINS_15__tree_end_nodeIPNS_16__tree_node_baseIPvEEEENS_9allocatorINS_11__tree_nodeINS_12__value_typeIi4DataEES3_EEEEE6secondB8ne180100Ev, symObjAddr: 0x46A0, symBinAddr: 0x100005510, symSize: 0x20 }
  - { offset: 0x2234E, size: 0x8, addend: 0x0, symName: __ZNSt3__122__compressed_pair_elemINS_9allocatorINS_11__tree_nodeINS_12__value_typeIi4DataEEPvEEEELi1ELb1EE5__getB8ne180100Ev, symObjAddr: 0x46C0, symBinAddr: 0x100005530, symSize: 0x10 }
  - { offset: 0x22374, size: 0x8, addend: 0x0, symName: __ZNSt3__19allocatorINS_11__tree_nodeINS_12__value_typeIi4DataEEPvEEE8allocateB8ne180100Em, symObjAddr: 0x46D0, symBinAddr: 0x100005540, symSize: 0x50 }
  - { offset: 0x223B3, size: 0x8, addend: 0x0, symName: __ZNSt3__116allocator_traitsINS_9allocatorINS_11__tree_nodeINS_12__value_typeIi4DataEEPvEEEEE8max_sizeB8ne180100IS8_vEEmRKS8_, symObjAddr: 0x4720, symBinAddr: 0x100005590, symSize: 0x20 }
  - { offset: 0x223E1, size: 0x8, addend: 0x0, symName: __ZNKSt3__19allocatorINS_11__tree_nodeINS_12__value_typeIi4DataEEPvEEE8max_sizeB8ne180100Ev, symObjAddr: 0x4740, symBinAddr: 0x1000055B0, symSize: 0x20 }
  - { offset: 0x22407, size: 0x8, addend: 0x0, symName: __ZNSt3__122__tree_node_destructorINS_9allocatorINS_11__tree_nodeINS_12__value_typeIi4DataEEPvEEEEEC2B8ne180100ERS8_b, symObjAddr: 0x4760, symBinAddr: 0x1000055D0, symSize: 0x30 }
  - { offset: 0x2244F, size: 0x8, addend: 0x0, symName: __ZNSt3__110unique_ptrINS_11__tree_nodeINS_12__value_typeIi4DataEEPvEENS_22__tree_node_destructorINS_9allocatorIS6_EEEEEC2B8ne180100ILb1EvEEPS6_NS_16__dependent_typeINS_27__unique_ptr_deleter_sfinaeISA_EEXT_EE20__good_rval_ref_typeE, symObjAddr: 0x4790, symBinAddr: 0x100005600, symSize: 0x40 }
  - { offset: 0x224A0, size: 0x8, addend: 0x0, symName: __ZNSt3__117__compressed_pairIPNS_11__tree_nodeINS_12__value_typeIi4DataEEPvEENS_22__tree_node_destructorINS_9allocatorIS6_EEEEEC1B8ne180100IRS7_SB_EEOT_OT0_, symObjAddr: 0x47D0, symBinAddr: 0x100005640, symSize: 0x30 }
  - { offset: 0x224F8, size: 0x8, addend: 0x0, symName: __ZNSt3__117__compressed_pairIPNS_11__tree_nodeINS_12__value_typeIi4DataEEPvEENS_22__tree_node_destructorINS_9allocatorIS6_EEEEEC2B8ne180100IRS7_SB_EEOT_OT0_, symObjAddr: 0x4800, symBinAddr: 0x100005670, symSize: 0x40 }
  - { offset: 0x22550, size: 0x8, addend: 0x0, symName: __ZNSt3__122__compressed_pair_elemIPNS_11__tree_nodeINS_12__value_typeIi4DataEEPvEELi0ELb0EEC2B8ne180100IRS7_vEEOT_, symObjAddr: 0x4840, symBinAddr: 0x1000056B0, symSize: 0x20 }
  - { offset: 0x22592, size: 0x8, addend: 0x0, symName: __ZNSt3__122__compressed_pair_elemINS_22__tree_node_destructorINS_9allocatorINS_11__tree_nodeINS_12__value_typeIi4DataEEPvEEEEEELi1ELb0EEC2B8ne180100ISA_vEEOT_, symObjAddr: 0x4860, symBinAddr: 0x1000056D0, symSize: 0x30 }
  - { offset: 0x225D4, size: 0x8, addend: 0x0, symName: __ZNSt3__19allocatorINS_11__tree_nodeINS_12__value_typeIi4DataEEPvEEE9constructB8ne180100INS_4pairIKiS3_EEJRKNS_21piecewise_construct_tENS_5tupleIJRSA_EEENSF_IJEEEEEEvPT_DpOT0_, symObjAddr: 0x4890, symBinAddr: 0x100005700, symSize: 0x40 }
  - { offset: 0x22650, size: 0x8, addend: 0x0, symName: __ZNSt3__14pairIKi4DataEC1B8ne180100IJRS1_EJEEENS_21piecewise_construct_tENS_5tupleIJDpT_EEENS7_IJDpT0_EEE, symObjAddr: 0x48D0, symBinAddr: 0x100005740, symSize: 0x40 }
  - { offset: 0x226B7, size: 0x8, addend: 0x0, symName: __ZNSt3__14pairIKi4DataEC1B8ne180100IJRS1_EJEJLm0EETpTnmJEEENS_21piecewise_construct_tERNS_5tupleIJDpT_EEERNS7_IJDpT0_EEENS_15__tuple_indicesIJXspT1_EEEENSG_IJXspT2_EEEE, symObjAddr: 0x4910, symBinAddr: 0x100005780, symSize: 0x30 }
  - { offset: 0x22741, size: 0x8, addend: 0x0, symName: __ZNSt3__14pairIKi4DataEC2B8ne180100IJRS1_EJEJLm0EETpTnmJEEENS_21piecewise_construct_tERNS_5tupleIJDpT_EEERNS7_IJDpT0_EEENS_15__tuple_indicesIJXspT1_EEEENSG_IJXspT2_EEEE, symObjAddr: 0x4940, symBinAddr: 0x1000057B0, symSize: 0x50 }
  - { offset: 0x227CB, size: 0x8, addend: 0x0, symName: __ZN4DataC1Ev, symObjAddr: 0x49B0, symBinAddr: 0x100005820, symSize: 0x20 }
  - { offset: 0x227F5, size: 0x8, addend: 0x0, symName: __ZNSt3__112__tuple_leafILm0ERKiLb0EE3getB8ne180100Ev, symObjAddr: 0x49D0, symBinAddr: 0x100005840, symSize: 0x20 }
  - { offset: 0x2281B, size: 0x8, addend: 0x0, symName: __ZN4DataC2Ev, symObjAddr: 0x49F0, symBinAddr: 0x100005860, symSize: 0x30 }
  - { offset: 0x22845, size: 0x8, addend: 0x0, symName: __ZNSt3__16vectorIP4DataNS_9allocatorIS2_EEEC1B8ne180100Ev, symObjAddr: 0x4A20, symBinAddr: 0x100005890, symSize: 0x20 }
  - { offset: 0x2286F, size: 0x8, addend: 0x0, symName: __ZNSt3__16vectorIP4DataNS_9allocatorIS2_EEEC2B8ne180100Ev, symObjAddr: 0x4A40, symBinAddr: 0x1000058B0, symSize: 0x50 }
  - { offset: 0x2289F, size: 0x8, addend: 0x0, symName: __ZNSt3__117__compressed_pairIPP4DataNS_9allocatorIS2_EEEC1B8ne180100IDnNS_18__default_init_tagEEEOT_OT0_, symObjAddr: 0x4A90, symBinAddr: 0x100005900, symSize: 0x30 }
  - { offset: 0x228F7, size: 0x8, addend: 0x0, symName: __ZNSt3__117__compressed_pairIPP4DataNS_9allocatorIS2_EEEC2B8ne180100IDnNS_18__default_init_tagEEEOT_OT0_, symObjAddr: 0x4AC0, symBinAddr: 0x100005930, symSize: 0x40 }
  - { offset: 0x2294F, size: 0x8, addend: 0x0, symName: __ZNSt3__122__compressed_pair_elemIPP4DataLi0ELb0EEC2B8ne180100IDnvEEOT_, symObjAddr: 0x4B00, symBinAddr: 0x100005970, symSize: 0x20 }
  - { offset: 0x22991, size: 0x8, addend: 0x0, symName: __ZNSt3__122__compressed_pair_elemINS_9allocatorIP4DataEELi1ELb1EEC2B8ne180100ENS_18__default_init_tagE, symObjAddr: 0x4B20, symBinAddr: 0x100005990, symSize: 0x20 }
  - { offset: 0x229C5, size: 0x8, addend: 0x0, symName: __ZNSt3__19allocatorIP4DataEC2B8ne180100Ev, symObjAddr: 0x4B40, symBinAddr: 0x1000059B0, symSize: 0x20 }
  - { offset: 0x229EF, size: 0x8, addend: 0x0, symName: __ZNSt3__116__non_trivial_ifILb1ENS_9allocatorIP4DataEEEC2B8ne180100Ev, symObjAddr: 0x4B60, symBinAddr: 0x1000059D0, symSize: 0x10 }
  - { offset: 0x22A19, size: 0x8, addend: 0x0, symName: __ZNKSt3__117__compressed_pairIPNS_11__tree_nodeINS_12__value_typeIi4DataEEPvEENS_22__tree_node_destructorINS_9allocatorIS6_EEEEE5firstB8ne180100Ev, symObjAddr: 0x4B70, symBinAddr: 0x1000059E0, symSize: 0x20 }
  - { offset: 0x22A3F, size: 0x8, addend: 0x0, symName: __ZNKSt3__122__compressed_pair_elemIPNS_11__tree_nodeINS_12__value_typeIi4DataEEPvEELi0ELb0EE5__getB8ne180100Ev, symObjAddr: 0x4B90, symBinAddr: 0x100005A00, symSize: 0x10 }
  - { offset: 0x22A65, size: 0x8, addend: 0x0, symName: __ZNSt3__117__compressed_pairIPNS_11__tree_nodeINS_12__value_typeIi4DataEEPvEENS_22__tree_node_destructorINS_9allocatorIS6_EEEEE6secondB8ne180100Ev, symObjAddr: 0x4BA0, symBinAddr: 0x100005A10, symSize: 0x20 }
  - { offset: 0x22A8B, size: 0x8, addend: 0x0, symName: __ZNSt3__122__compressed_pair_elemINS_22__tree_node_destructorINS_9allocatorINS_11__tree_nodeINS_12__value_typeIi4DataEEPvEEEEEELi1ELb0EE5__getB8ne180100Ev, symObjAddr: 0x4BC0, symBinAddr: 0x100005A30, symSize: 0x10 }
  - { offset: 0x22AB1, size: 0x8, addend: 0x0, symName: __ZNSt3__16__treeINS_12__value_typeIi4DataEENS_19__map_value_compareIiS3_NS_4lessIiEELb1EEENS_9allocatorIS3_EEE4sizeB8ne180100Ev, symObjAddr: 0x4EF0, symBinAddr: 0x100005D60, symSize: 0x20 }
  - { offset: 0x22AD7, size: 0x8, addend: 0x0, symName: __ZNKSt3__116__tree_node_baseIPvE15__parent_unsafeB8ne180100Ev, symObjAddr: 0x4F10, symBinAddr: 0x100005D80, symSize: 0x20 }
  - { offset: 0x22AFD, size: 0x8, addend: 0x0, symName: __ZNSt3__116__tree_node_baseIPvE12__set_parentB8ne180100EPS2_, symObjAddr: 0x50F0, symBinAddr: 0x100005F60, symSize: 0x20 }
  - { offset: 0x22B32, size: 0x8, addend: 0x0, symName: __ZNSt3__117__compressed_pairImNS_19__map_value_compareIiNS_12__value_typeIi4DataEENS_4lessIiEELb1EEEE5firstB8ne180100Ev, symObjAddr: 0x5110, symBinAddr: 0x100005F80, symSize: 0x20 }
  - { offset: 0x22B58, size: 0x8, addend: 0x0, symName: __ZNSt3__122__compressed_pair_elemImLi0ELb0EE5__getB8ne180100Ev, symObjAddr: 0x5130, symBinAddr: 0x100005FA0, symSize: 0x10 }
  - { offset: 0x22B7E, size: 0x8, addend: 0x0, symName: __ZNSt3__117__compressed_pairIPNS_11__tree_nodeINS_12__value_typeIi4DataEEPvEENS_22__tree_node_destructorINS_9allocatorIS6_EEEEE5firstB8ne180100Ev, symObjAddr: 0x5140, symBinAddr: 0x100005FB0, symSize: 0x20 }
  - { offset: 0x22BA4, size: 0x8, addend: 0x0, symName: __ZNSt3__122__compressed_pair_elemIPNS_11__tree_nodeINS_12__value_typeIi4DataEEPvEELi0ELb0EE5__getB8ne180100Ev, symObjAddr: 0x5160, symBinAddr: 0x100005FD0, symSize: 0x10 }
  - { offset: 0x22BCA, size: 0x8, addend: 0x0, symName: __ZNSt3__110unique_ptrINS_11__tree_nodeINS_12__value_typeIi4DataEEPvEENS_22__tree_node_destructorINS_9allocatorIS6_EEEEED2B8ne180100Ev, symObjAddr: 0x5170, symBinAddr: 0x100005FE0, symSize: 0x20 }
  - { offset: 0x22BF4, size: 0x8, addend: 0x0, symName: __ZNSt3__110unique_ptrINS_11__tree_nodeINS_12__value_typeIi4DataEEPvEENS_22__tree_node_destructorINS_9allocatorIS6_EEEEE5resetB8ne180100EPS6_, symObjAddr: 0x5190, symBinAddr: 0x100006000, symSize: 0x70 }
  - { offset: 0x22C38, size: 0x8, addend: 0x0, symName: __ZNSt3__122__tree_node_destructorINS_9allocatorINS_11__tree_nodeINS_12__value_typeIi4DataEEPvEEEEEclB8ne180100EPS7_, symObjAddr: 0x5200, symBinAddr: 0x100006070, symSize: 0x90 }
  - { offset: 0x22C6D, size: 0x8, addend: 0x0, symName: __ZNSt3__116allocator_traitsINS_9allocatorINS_11__tree_nodeINS_12__value_typeIi4DataEEPvEEEEE7destroyB8ne180100INS_4pairIKiS4_EEvvEEvRS8_PT_, symObjAddr: 0x5290, symBinAddr: 0x100006100, symSize: 0x20 }
  - { offset: 0x22CA7, size: 0x8, addend: 0x0, symName: __ZNSt3__116allocator_traitsINS_9allocatorINS_11__tree_nodeINS_12__value_typeIi4DataEEPvEEEEE10deallocateB8ne180100ERS8_PS7_m, symObjAddr: 0x52B0, symBinAddr: 0x100006120, symSize: 0x30 }
  - { offset: 0x22CE9, size: 0x8, addend: 0x0, symName: __ZNSt3__14pairIKi4DataED1Ev, symObjAddr: 0x5300, symBinAddr: 0x100006170, symSize: 0x20 }
  - { offset: 0x22D15, size: 0x8, addend: 0x0, symName: __ZNSt3__14pairIKi4DataED2Ev, symObjAddr: 0x5320, symBinAddr: 0x100006190, symSize: 0x20 }
  - { offset: 0x22D41, size: 0x8, addend: 0x0, symName: __ZN4DataD1Ev, symObjAddr: 0x5340, symBinAddr: 0x1000061B0, symSize: 0x20 }
  - { offset: 0x22D6D, size: 0x8, addend: 0x0, symName: __ZN4DataD2Ev, symObjAddr: 0x5360, symBinAddr: 0x1000061D0, symSize: 0x30 }
  - { offset: 0x22D99, size: 0x8, addend: 0x0, symName: __ZNSt3__16vectorIP4DataNS_9allocatorIS2_EEED1B8ne180100Ev, symObjAddr: 0x5390, symBinAddr: 0x100006200, symSize: 0x20 }
  - { offset: 0x22DC3, size: 0x8, addend: 0x0, symName: __ZNSt3__16vectorIP4DataNS_9allocatorIS2_EEED2B8ne180100Ev, symObjAddr: 0x53B0, symBinAddr: 0x100006220, symSize: 0x40 }
  - { offset: 0x22DED, size: 0x8, addend: 0x0, symName: __ZNSt3__16vectorIP4DataNS_9allocatorIS2_EEE16__destroy_vectorC1B8ne180100ERS5_, symObjAddr: 0x53F0, symBinAddr: 0x100006260, symSize: 0x30 }
  - { offset: 0x22E26, size: 0x8, addend: 0x0, symName: __ZNSt3__16vectorIP4DataNS_9allocatorIS2_EEE16__destroy_vectorclB8ne180100Ev, symObjAddr: 0x5420, symBinAddr: 0x100006290, symSize: 0x80 }
  - { offset: 0x22E4C, size: 0x8, addend: 0x0, symName: __ZNSt3__16vectorIP4DataNS_9allocatorIS2_EEE16__destroy_vectorC2B8ne180100ERS5_, symObjAddr: 0x54A0, symBinAddr: 0x100006310, symSize: 0x20 }
  - { offset: 0x22E85, size: 0x8, addend: 0x0, symName: __ZNSt3__16vectorIP4DataNS_9allocatorIS2_EEE7__clearB8ne180100Ev, symObjAddr: 0x54C0, symBinAddr: 0x100006330, symSize: 0x20 }
  - { offset: 0x22EAB, size: 0x8, addend: 0x0, symName: __ZNKSt3__16vectorIP4DataNS_9allocatorIS2_EEE17__annotate_deleteB8ne180100Ev, symObjAddr: 0x54E0, symBinAddr: 0x100006350, symSize: 0x10 }
  - { offset: 0x22ED1, size: 0x8, addend: 0x0, symName: __ZNSt3__116allocator_traitsINS_9allocatorIP4DataEEE10deallocateB8ne180100ERS4_PS3_m, symObjAddr: 0x54F0, symBinAddr: 0x100006360, symSize: 0x30 }
  - { offset: 0x22F13, size: 0x8, addend: 0x0, symName: __ZNSt3__16vectorIP4DataNS_9allocatorIS2_EEE7__allocB8ne180100Ev, symObjAddr: 0x5520, symBinAddr: 0x100006390, symSize: 0x20 }
  - { offset: 0x22F39, size: 0x8, addend: 0x0, symName: __ZNKSt3__16vectorIP4DataNS_9allocatorIS2_EEE8capacityB8ne180100Ev, symObjAddr: 0x5540, symBinAddr: 0x1000063B0, symSize: 0x30 }
  - { offset: 0x22F5F, size: 0x8, addend: 0x0, symName: __ZNSt3__16vectorIP4DataNS_9allocatorIS2_EEE22__base_destruct_at_endB8ne180100EPS2_, symObjAddr: 0x5570, symBinAddr: 0x1000063E0, symSize: 0x80 }
  - { offset: 0x22FA3, size: 0x8, addend: 0x0, symName: __ZNSt3__116allocator_traitsINS_9allocatorIP4DataEEE7destroyB8ne180100IS3_vEEvRS4_PT_, symObjAddr: 0x55F0, symBinAddr: 0x100006460, symSize: 0x30 }
  - { offset: 0x22FE0, size: 0x8, addend: 0x0, symName: __ZNSt3__19allocatorIP4DataE7destroyB8ne180100EPS2_, symObjAddr: 0x5630, symBinAddr: 0x1000064A0, symSize: 0x10 }
  - { offset: 0x23014, size: 0x8, addend: 0x0, symName: __ZNSt3__19allocatorIP4DataE10deallocateB8ne180100EPS2_m, symObjAddr: 0x5640, symBinAddr: 0x1000064B0, symSize: 0x40 }
  - { offset: 0x23056, size: 0x8, addend: 0x0, symName: __ZNSt3__117__compressed_pairIPP4DataNS_9allocatorIS2_EEE6secondB8ne180100Ev, symObjAddr: 0x5780, symBinAddr: 0x1000065F0, symSize: 0x20 }
  - { offset: 0x2307C, size: 0x8, addend: 0x0, symName: __ZNSt3__122__compressed_pair_elemINS_9allocatorIP4DataEELi1ELb1EE5__getB8ne180100Ev, symObjAddr: 0x57A0, symBinAddr: 0x100006610, symSize: 0x10 }
  - { offset: 0x230A2, size: 0x8, addend: 0x0, symName: __ZNKSt3__16vectorIP4DataNS_9allocatorIS2_EEE9__end_capB8ne180100Ev, symObjAddr: 0x57B0, symBinAddr: 0x100006620, symSize: 0x20 }
  - { offset: 0x230C8, size: 0x8, addend: 0x0, symName: __ZNKSt3__117__compressed_pairIPP4DataNS_9allocatorIS2_EEE5firstB8ne180100Ev, symObjAddr: 0x57D0, symBinAddr: 0x100006640, symSize: 0x20 }
  - { offset: 0x230EE, size: 0x8, addend: 0x0, symName: __ZNKSt3__122__compressed_pair_elemIPP4DataLi0ELb0EE5__getB8ne180100Ev, symObjAddr: 0x57F0, symBinAddr: 0x100006660, symSize: 0x10 }
  - { offset: 0x23114, size: 0x8, addend: 0x0, symName: __ZNSt3__19allocatorINS_11__tree_nodeINS_12__value_typeIi4DataEEPvEEE10deallocateB8ne180100EPS6_m, symObjAddr: 0x5800, symBinAddr: 0x100006670, symSize: 0x50 }
  - { offset: 0x23156, size: 0x8, addend: 0x0, symName: __ZNSt3__115__tree_iteratorINS_12__value_typeIi4DataEEPNS_11__tree_nodeIS3_PvEElEC2B8ne180100ES7_, symObjAddr: 0x5850, symBinAddr: 0x1000066C0, symSize: 0x20 }
  - { offset: 0x2318F, size: 0x8, addend: 0x0, symName: __ZNSt3__14pairINS_15__tree_iteratorINS_12__value_typeIi4DataEEPNS_11__tree_nodeIS4_PvEElEEbEC2B8ne180100IS9_RbTnNS_9enable_ifIXclsr10_CheckArgsE17__enable_implicitIT_T0_EEEiE4typeELi0EEEOSE_OSF_, symObjAddr: 0x5870, symBinAddr: 0x1000066E0, symSize: 0x30 }
  - { offset: 0x231ED, size: 0x8, addend: 0x0, symName: __ZNSt3__15tupleIJRKiEEC1B8ne180100INS_4_AndETnNS_9enable_ifIXsrT_IJNS_17integral_constantIbLb1EEENS_21is_copy_constructibleIS2_EEEE5valueEiE4typeELi0EEES2_, symObjAddr: 0x58A0, symBinAddr: 0x100006710, symSize: 0x30 }
  - { offset: 0x23235, size: 0x8, addend: 0x0, symName: __ZNSt3__15tupleIJRKiEEC2B8ne180100INS_4_AndETnNS_9enable_ifIXsrT_IJNS_17integral_constantIbLb1EEENS_21is_copy_constructibleIS2_EEEE5valueEiE4typeELi0EEES2_, symObjAddr: 0x58D0, symBinAddr: 0x100006740, symSize: 0x30 }
  - { offset: 0x2327D, size: 0x8, addend: 0x0, symName: __ZNSt3__112__tuple_implINS_15__tuple_indicesIJLm0EEEEJRKiEEC1B8ne180100IJLm0EEJS4_ETpTnmJEJEJS4_EEENS1_IJXspT_EEEENS_13__tuple_typesIJDpT0_EEENS1_IJXspT1_EEEENS8_IJDpT2_EEEDpOT3_, symObjAddr: 0x5900, symBinAddr: 0x100006770, symSize: 0x30 }
  - { offset: 0x2330E, size: 0x8, addend: 0x0, symName: __ZNSt3__112__tuple_implINS_15__tuple_indicesIJLm0EEEEJRKiEEC2B8ne180100IJLm0EEJS4_ETpTnmJEJEJS4_EEENS1_IJXspT_EEEENS_13__tuple_typesIJDpT0_EEENS1_IJXspT1_EEEENS8_IJDpT2_EEEDpOT3_, symObjAddr: 0x5930, symBinAddr: 0x1000067A0, symSize: 0x30 }
  - { offset: 0x2339F, size: 0x8, addend: 0x0, symName: __ZNSt3__112__tuple_leafILm0ERKiLb0EEC2B8ne180100IS2_vEEOT_, symObjAddr: 0x5960, symBinAddr: 0x1000067D0, symSize: 0x20 }
  - { offset: 0x233E2, size: 0x8, addend: 0x0, symName: __ZNSt3__114pointer_traitsIPNS_12__value_typeIi4DataEEE10pointer_toB8ne180100ERS3_, symObjAddr: 0x5980, symBinAddr: 0x1000067F0, symSize: 0x10 }
  - { offset: 0x23405, size: 0x8, addend: 0x0, symName: __ZNKSt3__115__tree_iteratorINS_12__value_typeIi4DataEEPNS_11__tree_nodeIS3_PvEElE8__get_npB8ne180100Ev, symObjAddr: 0x5990, symBinAddr: 0x100006800, symSize: 0x20 }
  - { offset: 0x2342B, size: 0x8, addend: 0x0, symName: __ZNSt3__16vectorIP4DataNS_9allocatorIS2_EEE9__end_capB8ne180100Ev, symObjAddr: 0x59E0, symBinAddr: 0x100006850, symSize: 0x20 }
  - { offset: 0x23457, size: 0x8, addend: 0x0, symName: __ZNSt3__16vectorIP4DataNS_9allocatorIS2_EEE22__construct_one_at_endB8ne180100IJS2_EEEvDpOT_, symObjAddr: 0x5A00, symBinAddr: 0x100006870, symSize: 0x90 }
  - { offset: 0x234A6, size: 0x8, addend: 0x0, symName: __ZNSt3__16vectorIP4DataNS_9allocatorIS2_EEE21__push_back_slow_pathIS2_EEPS2_OT_, symObjAddr: 0x5A90, symBinAddr: 0x100006900, symSize: 0xE0 }
  - { offset: 0x23502, size: 0x8, addend: 0x0, symName: __ZNSt3__117__compressed_pairIPP4DataNS_9allocatorIS2_EEE5firstB8ne180100Ev, symObjAddr: 0x5B70, symBinAddr: 0x1000069E0, symSize: 0x20 }
  - { offset: 0x23528, size: 0x8, addend: 0x0, symName: __ZNSt3__122__compressed_pair_elemIPP4DataLi0ELb0EE5__getB8ne180100Ev, symObjAddr: 0x5B90, symBinAddr: 0x100006A00, symSize: 0x10 }
  - { offset: 0x23569, size: 0x8, addend: 0x0, symName: __ZNSt3__16vectorIP4DataNS_9allocatorIS2_EEE21_ConstructTransactionC1B8ne180100ERS5_m, symObjAddr: 0x5BA0, symBinAddr: 0x100006A10, symSize: 0x30 }
  - { offset: 0x235B1, size: 0x8, addend: 0x0, symName: __ZNSt3__116allocator_traitsINS_9allocatorIP4DataEEE9constructB8ne180100IS3_JS3_EvEEvRS4_PT_DpOT0_, symObjAddr: 0x5BD0, symBinAddr: 0x100006A40, symSize: 0x30 }
  - { offset: 0x23608, size: 0x8, addend: 0x0, symName: __ZNSt3__16vectorIP4DataNS_9allocatorIS2_EEE21_ConstructTransactionD1B8ne180100Ev, symObjAddr: 0x5C00, symBinAddr: 0x100006A70, symSize: 0x20 }
  - { offset: 0x23632, size: 0x8, addend: 0x0, symName: __ZNSt3__16vectorIP4DataNS_9allocatorIS2_EEE21_ConstructTransactionC2B8ne180100ERS5_m, symObjAddr: 0x5C20, symBinAddr: 0x100006A90, symSize: 0x40 }
  - { offset: 0x2367A, size: 0x8, addend: 0x0, symName: __ZNSt3__19allocatorIP4DataE9constructB8ne180100IS2_JS2_EEEvPT_DpOT0_, symObjAddr: 0x5C60, symBinAddr: 0x100006AD0, symSize: 0x20 }
  - { offset: 0x236D0, size: 0x8, addend: 0x0, symName: __ZNSt3__16vectorIP4DataNS_9allocatorIS2_EEE21_ConstructTransactionD2B8ne180100Ev, symObjAddr: 0x5C80, symBinAddr: 0x100006AF0, symSize: 0x20 }
  - { offset: 0x236FA, size: 0x8, addend: 0x0, symName: __ZNKSt3__16vectorIP4DataNS_9allocatorIS2_EEE11__recommendB8ne180100Em, symObjAddr: 0x5CA0, symBinAddr: 0x100006B10, symSize: 0x90 }
  - { offset: 0x2374F, size: 0x8, addend: 0x0, symName: __ZNKSt3__16vectorIP4DataNS_9allocatorIS2_EEE4sizeB8ne180100Ev, symObjAddr: 0x5D30, symBinAddr: 0x100006BA0, symSize: 0x20 }
  - { offset: 0x23775, size: 0x8, addend: 0x0, symName: __ZNSt3__114__split_bufferIP4DataRNS_9allocatorIS2_EEEC1EmmS5_, symObjAddr: 0x5D50, symBinAddr: 0x100006BC0, symSize: 0x40 }
  - { offset: 0x237CB, size: 0x8, addend: 0x0, symName: __ZNSt3__114__split_bufferIP4DataRNS_9allocatorIS2_EEED1Ev, symObjAddr: 0x5EB0, symBinAddr: 0x100006D20, symSize: 0x20 }
  - { offset: 0x237F7, size: 0x8, addend: 0x0, symName: __ZNKSt3__16vectorIP4DataNS_9allocatorIS2_EEE8max_sizeEv, symObjAddr: 0x5ED0, symBinAddr: 0x100006D40, symSize: 0x60 }
  - { offset: 0x2381F, size: 0x8, addend: 0x0, symName: __ZNKSt3__16vectorIP4DataNS_9allocatorIS2_EEE20__throw_length_errorB8ne180100Ev, symObjAddr: 0x5F30, symBinAddr: 0x100006DA0, symSize: 0x20 }
  - { offset: 0x23850, size: 0x8, addend: 0x0, symName: __ZNSt3__116allocator_traitsINS_9allocatorIP4DataEEE8max_sizeB8ne180100IS4_vEEmRKS4_, symObjAddr: 0x5FB0, symBinAddr: 0x100006E20, symSize: 0x20 }
  - { offset: 0x2387E, size: 0x8, addend: 0x0, symName: __ZNKSt3__16vectorIP4DataNS_9allocatorIS2_EEE7__allocB8ne180100Ev, symObjAddr: 0x5FD0, symBinAddr: 0x100006E40, symSize: 0x20 }
  - { offset: 0x238A4, size: 0x8, addend: 0x0, symName: __ZNSt3__114numeric_limitsIlE3maxB8ne180100Ev, symObjAddr: 0x5FF0, symBinAddr: 0x100006E60, symSize: 0x10 }
  - { offset: 0x238C2, size: 0x8, addend: 0x0, symName: __ZNKSt3__16__lessIvvEclB8ne180100ImmEEbRKT_RKT0_, symObjAddr: 0x6050, symBinAddr: 0x100006EC0, symSize: 0x30 }
  - { offset: 0x23916, size: 0x8, addend: 0x0, symName: __ZNKSt3__19allocatorIP4DataE8max_sizeB8ne180100Ev, symObjAddr: 0x6080, symBinAddr: 0x100006EF0, symSize: 0x20 }
  - { offset: 0x2393C, size: 0x8, addend: 0x0, symName: __ZNKSt3__117__compressed_pairIPP4DataNS_9allocatorIS2_EEE6secondB8ne180100Ev, symObjAddr: 0x60A0, symBinAddr: 0x100006F10, symSize: 0x20 }
  - { offset: 0x23962, size: 0x8, addend: 0x0, symName: __ZNKSt3__122__compressed_pair_elemINS_9allocatorIP4DataEELi1ELb1EE5__getB8ne180100Ev, symObjAddr: 0x60C0, symBinAddr: 0x100006F30, symSize: 0x10 }
  - { offset: 0x23988, size: 0x8, addend: 0x0, symName: __ZNSt3__123__libcpp_numeric_limitsIlLb1EE3maxB8ne180100Ev, symObjAddr: 0x60D0, symBinAddr: 0x100006F40, symSize: 0x10 }
  - { offset: 0x2399C, size: 0x8, addend: 0x0, symName: __ZNSt3__114__split_bufferIP4DataRNS_9allocatorIS2_EEEC2EmmS5_, symObjAddr: 0x6130, symBinAddr: 0x100006FA0, symSize: 0xD0 }
  - { offset: 0x23A0F, size: 0x8, addend: 0x0, symName: __ZNSt3__117__compressed_pairIPP4DataRNS_9allocatorIS2_EEEC1B8ne180100IDnS6_EEOT_OT0_, symObjAddr: 0x6200, symBinAddr: 0x100007070, symSize: 0x30 }
  - { offset: 0x23A67, size: 0x8, addend: 0x0, symName: __ZNSt3__114__split_bufferIP4DataRNS_9allocatorIS2_EEE7__allocB8ne180100Ev, symObjAddr: 0x6270, symBinAddr: 0x1000070E0, symSize: 0x20 }
  - { offset: 0x23A8D, size: 0x8, addend: 0x0, symName: __ZNSt3__114__split_bufferIP4DataRNS_9allocatorIS2_EEE9__end_capB8ne180100Ev, symObjAddr: 0x6290, symBinAddr: 0x100007100, symSize: 0x20 }
  - { offset: 0x23AB3, size: 0x8, addend: 0x0, symName: __ZNSt3__117__compressed_pairIPP4DataRNS_9allocatorIS2_EEEC2B8ne180100IDnS6_EEOT_OT0_, symObjAddr: 0x62B0, symBinAddr: 0x100007120, symSize: 0x40 }
  - { offset: 0x23B0B, size: 0x8, addend: 0x0, symName: __ZNSt3__122__compressed_pair_elemIRNS_9allocatorIP4DataEELi1ELb0EEC2B8ne180100IS5_vEEOT_, symObjAddr: 0x62F0, symBinAddr: 0x100007160, symSize: 0x20 }
  - { offset: 0x23B4D, size: 0x8, addend: 0x0, symName: __ZNSt3__19allocatorIP4DataE8allocateB8ne180100Em, symObjAddr: 0x6310, symBinAddr: 0x100007180, symSize: 0x50 }
  - { offset: 0x23B81, size: 0x8, addend: 0x0, symName: __ZNSt3__117__compressed_pairIPP4DataRNS_9allocatorIS2_EEE6secondB8ne180100Ev, symObjAddr: 0x6360, symBinAddr: 0x1000071D0, symSize: 0x20 }
  - { offset: 0x23BA7, size: 0x8, addend: 0x0, symName: __ZNSt3__122__compressed_pair_elemIRNS_9allocatorIP4DataEELi1ELb0EE5__getB8ne180100Ev, symObjAddr: 0x6380, symBinAddr: 0x1000071F0, symSize: 0x20 }
  - { offset: 0x23BCD, size: 0x8, addend: 0x0, symName: __ZNSt3__117__compressed_pairIPP4DataRNS_9allocatorIS2_EEE5firstB8ne180100Ev, symObjAddr: 0x63A0, symBinAddr: 0x100007210, symSize: 0x20 }
  - { offset: 0x23BF3, size: 0x8, addend: 0x0, symName: __ZNSt3__116reverse_iteratorIPP4DataEC1B8ne180100ES3_, symObjAddr: 0x6430, symBinAddr: 0x1000072A0, symSize: 0x30 }
  - { offset: 0x23C2B, size: 0x8, addend: 0x0, symName: __ZNKSt3__116reverse_iteratorIPP4DataE4baseB8ne180100Ev, symObjAddr: 0x6460, symBinAddr: 0x1000072D0, symSize: 0x20 }
  - { offset: 0x23C51, size: 0x8, addend: 0x0, symName: __ZNKSt3__16vectorIP4DataNS_9allocatorIS2_EEE14__annotate_newB8ne180100Em, symObjAddr: 0x64C0, symBinAddr: 0x100007330, symSize: 0x10 }
  - { offset: 0x23CAC, size: 0x8, addend: 0x0, symName: __ZNKSt3__111__move_loopINS_17_ClassicAlgPolicyEEclB8ne180100INS_16reverse_iteratorIPP4DataEES8_S8_EENS_4pairIT_T1_EESA_T0_SB_, symObjAddr: 0x6910, symBinAddr: 0x100007780, symSize: 0xA0 }
  - { offset: 0x23D1D, size: 0x8, addend: 0x0, symName: __ZNSt3__18_IterOpsINS_17_ClassicAlgPolicyEE11__iter_moveB8ne180100IRNS_16reverse_iteratorIPP4DataEETnNS_9enable_ifIXsr12is_referenceIDTdeclsr3stdE7declvalIRT_EEEEE5valueEiE4typeELi0EEEDTclsr3stdE4movedeclsr3stdE7declvalISC_EEEEOSB_, symObjAddr: 0x6B30, symBinAddr: 0x1000079A0, symSize: 0x20 }
  - { offset: 0x23D4F, size: 0x8, addend: 0x0, symName: __ZNKSt3__116reverse_iteratorIPP4DataEdeB8ne180100Ev, symObjAddr: 0x6B50, symBinAddr: 0x1000079C0, symSize: 0x30 }
  - { offset: 0x23D83, size: 0x8, addend: 0x0, symName: __ZNSt3__116reverse_iteratorIPP4DataEppB8ne180100Ev, symObjAddr: 0x6B80, symBinAddr: 0x1000079F0, symSize: 0x20 }
  - { offset: 0x23DA9, size: 0x8, addend: 0x0, symName: __ZNSt3__18_IterOpsINS_17_ClassicAlgPolicyEE25__validate_iter_referenceB8ne180100IRNS_16reverse_iteratorIPP4DataEEEEvv, symObjAddr: 0x6BA0, symBinAddr: 0x100007A10, symSize: 0x10 }
  - { offset: 0x23DC7, size: 0x8, addend: 0x0, symName: __ZNSt3__118__unwrap_iter_implINS_16reverse_iteratorIPP4DataEELb0EE8__unwrapB8ne180100ES5_, symObjAddr: 0x6BB0, symBinAddr: 0x100007A20, symSize: 0x20 }
  - { offset: 0x23DF0, size: 0x8, addend: 0x0, symName: __ZNSt3__14pairINS_16reverse_iteratorIPP4DataEES5_EC1B8ne180100IS5_S5_TnNS_9enable_ifIXclsr10_CheckArgsE17__enable_implicitIT_T0_EEEiE4typeELi0EEEOS9_OSA_, symObjAddr: 0x6BD0, symBinAddr: 0x100007A40, symSize: 0x30 }
  - { offset: 0x23E4E, size: 0x8, addend: 0x0, symName: __ZNSt3__14pairINS_16reverse_iteratorIPP4DataEES5_EC2B8ne180100IS5_S5_TnNS_9enable_ifIXclsr10_CheckArgsE17__enable_implicitIT_T0_EEEiE4typeELi0EEEOS9_OSA_, symObjAddr: 0x6C00, symBinAddr: 0x100007A70, symSize: 0x40 }
  - { offset: 0x23EAC, size: 0x8, addend: 0x0, symName: __ZNSt3__118__unwrap_iter_implINS_16reverse_iteratorIPP4DataEELb0EE8__rewrapB8ne180100ES5_S5_, symObjAddr: 0x6C40, symBinAddr: 0x100007AB0, symSize: 0x30 }
  - { offset: 0x23ED9, size: 0x8, addend: 0x0, symName: __ZNSt3__116reverse_iteratorIPP4DataEC2B8ne180100ES3_, symObjAddr: 0x6C70, symBinAddr: 0x100007AE0, symSize: 0x30 }
  - { offset: 0x23F11, size: 0x8, addend: 0x0, symName: __ZNSt3__114__split_bufferIP4DataRNS_9allocatorIS2_EEED2Ev, symObjAddr: 0x6CA0, symBinAddr: 0x100007B10, symSize: 0x70 }
  - { offset: 0x23F3D, size: 0x8, addend: 0x0, symName: __ZNSt3__114__split_bufferIP4DataRNS_9allocatorIS2_EEE5clearB8ne180100Ev, symObjAddr: 0x6D10, symBinAddr: 0x100007B80, symSize: 0x20 }
  - { offset: 0x23F63, size: 0x8, addend: 0x0, symName: __ZNKSt3__114__split_bufferIP4DataRNS_9allocatorIS2_EEE8capacityB8ne180100Ev, symObjAddr: 0x6D30, symBinAddr: 0x100007BA0, symSize: 0x30 }
  - { offset: 0x23F89, size: 0x8, addend: 0x0, symName: __ZNSt3__114__split_bufferIP4DataRNS_9allocatorIS2_EEE17__destruct_at_endB8ne180100EPS2_, symObjAddr: 0x6D60, symBinAddr: 0x100007BD0, symSize: 0x30 }
  - { offset: 0x23FBD, size: 0x8, addend: 0x0, symName: __ZNSt3__114__split_bufferIP4DataRNS_9allocatorIS2_EEE17__destruct_at_endB8ne180100EPS2_NS_17integral_constantIbLb0EEE, symObjAddr: 0x6D90, symBinAddr: 0x100007C00, symSize: 0x80 }
  - { offset: 0x23FFD, size: 0x8, addend: 0x0, symName: __ZNKSt3__114__split_bufferIP4DataRNS_9allocatorIS2_EEE9__end_capB8ne180100Ev, symObjAddr: 0x6E10, symBinAddr: 0x100007C80, symSize: 0x20 }
  - { offset: 0x24023, size: 0x8, addend: 0x0, symName: __ZNKSt3__117__compressed_pairIPP4DataRNS_9allocatorIS2_EEE5firstB8ne180100Ev, symObjAddr: 0x6E30, symBinAddr: 0x100007CA0, symSize: 0x20 }
  - { offset: 0x24049, size: 0x8, addend: 0x0, symName: __ZNSt3__114basic_ifstreamIcNS_11char_traitsIcEEED2Ev, symObjAddr: 0x6E50, symBinAddr: 0x100007CC0, symSize: 0x60 }
  - { offset: 0x24083, size: 0x8, addend: 0x0, symName: __ZTv0_n24_NSt3__114basic_ifstreamIcNS_11char_traitsIcEEED1Ev, symObjAddr: 0x6EB0, symBinAddr: 0x100007D20, symSize: 0x20 }
  - { offset: 0x2409A, size: 0x8, addend: 0x0, symName: __ZNSt3__13mapIi4DataNS_4lessIiEENS_9allocatorINS_4pairIKiS1_EEEEED2B8ne180100Ev, symObjAddr: 0x6ED0, symBinAddr: 0x100007D40, symSize: 0x20 }
  - { offset: 0x240C4, size: 0x8, addend: 0x0, symName: __ZNSt3__16__treeINS_12__value_typeIi4DataEENS_19__map_value_compareIiS3_NS_4lessIiEELb1EEENS_9allocatorIS3_EEED1Ev, symObjAddr: 0x6EF0, symBinAddr: 0x100007D60, symSize: 0x20 }
  - { offset: 0x240F0, size: 0x8, addend: 0x0, symName: __ZNSt3__16__treeINS_12__value_typeIi4DataEENS_19__map_value_compareIiS3_NS_4lessIiEELb1EEENS_9allocatorIS3_EEED2Ev, symObjAddr: 0x6F10, symBinAddr: 0x100007D80, symSize: 0x30 }
  - { offset: 0x2411C, size: 0x8, addend: 0x0, symName: __ZNSt3__16__treeINS_12__value_typeIi4DataEENS_19__map_value_compareIiS3_NS_4lessIiEELb1EEENS_9allocatorIS3_EEE7destroyEPNS_11__tree_nodeIS3_PvEE, symObjAddr: 0x6F40, symBinAddr: 0x100007DB0, symSize: 0xB0 }
  - { offset: 0x24168, size: 0x8, addend: 0x0, symName: __ZN5GraphC2Ei, symObjAddr: 0x6FF0, symBinAddr: 0x100007E60, symSize: 0xA0 }
  - { offset: 0x241BC, size: 0x8, addend: 0x0, symName: __ZN6MatrixC1Ei, symObjAddr: 0x7090, symBinAddr: 0x100007F00, symSize: 0x30 }
  - { offset: 0x241F4, size: 0x8, addend: 0x0, symName: __ZN6MatrixD1Ev, symObjAddr: 0x70C0, symBinAddr: 0x100007F30, symSize: 0x20 }
  - { offset: 0x24220, size: 0x8, addend: 0x0, symName: __ZN6MatrixC2Ei, symObjAddr: 0x70E0, symBinAddr: 0x100007F50, symSize: 0x100 }
  - { offset: 0x24274, size: 0x8, addend: 0x0, symName: __ZNSt3__16vectorINS0_IiNS_9allocatorIiEEEENS1_IS3_EEEC1B8ne180100Ev, symObjAddr: 0x71E0, symBinAddr: 0x100008050, symSize: 0x20 }
  - { offset: 0x2429E, size: 0x8, addend: 0x0, symName: __ZNSt3__16vectorINS0_IiNS_9allocatorIiEEEENS1_IS3_EEE6resizeEm, symObjAddr: 0x7200, symBinAddr: 0x100008070, symSize: 0x80 }
  - { offset: 0x242E4, size: 0x8, addend: 0x0, symName: __ZNSt3__16vectorIiNS_9allocatorIiEEE6resizeEm, symObjAddr: 0x7280, symBinAddr: 0x1000080F0, symSize: 0x80 }
  - { offset: 0x2432A, size: 0x8, addend: 0x0, symName: __ZNSt3__16vectorIiNS_9allocatorIiEEE5beginB8ne180100Ev, symObjAddr: 0x7340, symBinAddr: 0x1000081B0, symSize: 0x30 }
  - { offset: 0x24352, size: 0x8, addend: 0x0, symName: __ZNSt3__16vectorIiNS_9allocatorIiEEE3endB8ne180100Ev, symObjAddr: 0x7370, symBinAddr: 0x1000081E0, symSize: 0x30 }
  - { offset: 0x2437A, size: 0x8, addend: 0x0, symName: __ZNSt3__16vectorINS0_IiNS_9allocatorIiEEEENS1_IS3_EEED1B8ne180100Ev, symObjAddr: 0x73A0, symBinAddr: 0x100008210, symSize: 0x20 }
  - { offset: 0x243A4, size: 0x8, addend: 0x0, symName: __ZNSt3__16vectorINS0_IiNS_9allocatorIiEEEENS1_IS3_EEEC2B8ne180100Ev, symObjAddr: 0x73C0, symBinAddr: 0x100008230, symSize: 0x50 }
  - { offset: 0x243CE, size: 0x8, addend: 0x0, symName: __ZNSt3__117__compressed_pairIPNS_6vectorIiNS_9allocatorIiEEEENS2_IS4_EEEC1B8ne180100IDnNS_18__default_init_tagEEEOT_OT0_, symObjAddr: 0x7410, symBinAddr: 0x100008280, symSize: 0x30 }
  - { offset: 0x24426, size: 0x8, addend: 0x0, symName: __ZNSt3__117__compressed_pairIPNS_6vectorIiNS_9allocatorIiEEEENS2_IS4_EEEC2B8ne180100IDnNS_18__default_init_tagEEEOT_OT0_, symObjAddr: 0x7440, symBinAddr: 0x1000082B0, symSize: 0x40 }
  - { offset: 0x2447E, size: 0x8, addend: 0x0, symName: __ZNSt3__122__compressed_pair_elemIPNS_6vectorIiNS_9allocatorIiEEEELi0ELb0EEC2B8ne180100IDnvEEOT_, symObjAddr: 0x7480, symBinAddr: 0x1000082F0, symSize: 0x20 }
  - { offset: 0x244C0, size: 0x8, addend: 0x0, symName: __ZNSt3__122__compressed_pair_elemINS_9allocatorINS_6vectorIiNS1_IiEEEEEELi1ELb1EEC2B8ne180100ENS_18__default_init_tagE, symObjAddr: 0x74A0, symBinAddr: 0x100008310, symSize: 0x20 }
  - { offset: 0x244F4, size: 0x8, addend: 0x0, symName: __ZNSt3__19allocatorINS_6vectorIiNS0_IiEEEEEC2B8ne180100Ev, symObjAddr: 0x74C0, symBinAddr: 0x100008330, symSize: 0x20 }
  - { offset: 0x2451E, size: 0x8, addend: 0x0, symName: __ZNSt3__116__non_trivial_ifILb1ENS_9allocatorINS_6vectorIiNS1_IiEEEEEEEC2B8ne180100Ev, symObjAddr: 0x74E0, symBinAddr: 0x100008350, symSize: 0x10 }
  - { offset: 0x24548, size: 0x8, addend: 0x0, symName: __ZNSt3__16vectorINS0_IiNS_9allocatorIiEEEENS1_IS3_EEE8__appendEm, symObjAddr: 0x74F0, symBinAddr: 0x100008360, symSize: 0x100 }
  - { offset: 0x245A3, size: 0x8, addend: 0x0, symName: __ZNSt3__16vectorINS0_IiNS_9allocatorIiEEEENS1_IS3_EEE17__destruct_at_endB8ne180100EPS3_, symObjAddr: 0x75F0, symBinAddr: 0x100008460, symSize: 0x50 }
  - { offset: 0x245E7, size: 0x8, addend: 0x0, symName: __ZNSt3__16vectorINS0_IiNS_9allocatorIiEEEENS1_IS3_EEE9__end_capB8ne180100Ev, symObjAddr: 0x7640, symBinAddr: 0x1000084B0, symSize: 0x20 }
  - { offset: 0x2460D, size: 0x8, addend: 0x0, symName: __ZNSt3__16vectorINS0_IiNS_9allocatorIiEEEENS1_IS3_EEE18__construct_at_endEm, symObjAddr: 0x7660, symBinAddr: 0x1000084D0, symSize: 0xC0 }
  - { offset: 0x2467F, size: 0x8, addend: 0x0, symName: __ZNSt3__16vectorINS0_IiNS_9allocatorIiEEEENS1_IS3_EEE7__allocB8ne180100Ev, symObjAddr: 0x7720, symBinAddr: 0x100008590, symSize: 0x20 }
  - { offset: 0x246A5, size: 0x8, addend: 0x0, symName: __ZNKSt3__16vectorINS0_IiNS_9allocatorIiEEEENS1_IS3_EEE11__recommendB8ne180100Em, symObjAddr: 0x7740, symBinAddr: 0x1000085B0, symSize: 0x90 }
  - { offset: 0x246FA, size: 0x8, addend: 0x0, symName: __ZNSt3__114__split_bufferINS_6vectorIiNS_9allocatorIiEEEERNS2_IS4_EEEC1EmmS6_, symObjAddr: 0x77D0, symBinAddr: 0x100008640, symSize: 0x40 }
  - { offset: 0x24750, size: 0x8, addend: 0x0, symName: __ZNSt3__114__split_bufferINS_6vectorIiNS_9allocatorIiEEEERNS2_IS4_EEE18__construct_at_endEm, symObjAddr: 0x7810, symBinAddr: 0x100008680, symSize: 0xB0 }
  - { offset: 0x24793, size: 0x8, addend: 0x0, symName: __ZNSt3__114__split_bufferINS_6vectorIiNS_9allocatorIiEEEERNS2_IS4_EEED1Ev, symObjAddr: 0x79E0, symBinAddr: 0x100008850, symSize: 0x20 }
  - { offset: 0x247BF, size: 0x8, addend: 0x0, symName: __ZNSt3__117__compressed_pairIPNS_6vectorIiNS_9allocatorIiEEEENS2_IS4_EEE5firstB8ne180100Ev, symObjAddr: 0x7A00, symBinAddr: 0x100008870, symSize: 0x20 }
  - { offset: 0x247E5, size: 0x8, addend: 0x0, symName: __ZNSt3__122__compressed_pair_elemIPNS_6vectorIiNS_9allocatorIiEEEELi0ELb0EE5__getB8ne180100Ev, symObjAddr: 0x7A20, symBinAddr: 0x100008890, symSize: 0x10 }
  - { offset: 0x24826, size: 0x8, addend: 0x0, symName: __ZNSt3__16vectorINS0_IiNS_9allocatorIiEEEENS1_IS3_EEE21_ConstructTransactionC1B8ne180100ERS5_m, symObjAddr: 0x7A30, symBinAddr: 0x1000088A0, symSize: 0x30 }
  - { offset: 0x2486E, size: 0x8, addend: 0x0, symName: __ZNSt3__116allocator_traitsINS_9allocatorINS_6vectorIiNS1_IiEEEEEEE9constructB8ne180100IS4_JEvEEvRS5_PT_DpOT0_, symObjAddr: 0x7A60, symBinAddr: 0x1000088D0, symSize: 0x30 }
  - { offset: 0x248B0, size: 0x8, addend: 0x0, symName: __ZNSt3__16vectorINS0_IiNS_9allocatorIiEEEENS1_IS3_EEE21_ConstructTransactionD1B8ne180100Ev, symObjAddr: 0x7AA0, symBinAddr: 0x100008910, symSize: 0x20 }
  - { offset: 0x248DA, size: 0x8, addend: 0x0, symName: __ZNSt3__16vectorINS0_IiNS_9allocatorIiEEEENS1_IS3_EEE21_ConstructTransactionC2B8ne180100ERS5_m, symObjAddr: 0x7AC0, symBinAddr: 0x100008930, symSize: 0x40 }
  - { offset: 0x24922, size: 0x8, addend: 0x0, symName: __ZNSt3__19allocatorINS_6vectorIiNS0_IiEEEEE9constructB8ne180100IS3_JEEEvPT_DpOT0_, symObjAddr: 0x7B00, symBinAddr: 0x100008970, symSize: 0x20 }
  - { offset: 0x24964, size: 0x8, addend: 0x0, symName: __ZNSt3__16vectorINS0_IiNS_9allocatorIiEEEENS1_IS3_EEE21_ConstructTransactionD2B8ne180100Ev, symObjAddr: 0x7B20, symBinAddr: 0x100008990, symSize: 0x20 }
  - { offset: 0x2498E, size: 0x8, addend: 0x0, symName: __ZNSt3__117__compressed_pairIPNS_6vectorIiNS_9allocatorIiEEEENS2_IS4_EEE6secondB8ne180100Ev, symObjAddr: 0x7B40, symBinAddr: 0x1000089B0, symSize: 0x20 }
  - { offset: 0x249B4, size: 0x8, addend: 0x0, symName: __ZNSt3__122__compressed_pair_elemINS_9allocatorINS_6vectorIiNS1_IiEEEEEELi1ELb1EE5__getB8ne180100Ev, symObjAddr: 0x7B60, symBinAddr: 0x1000089D0, symSize: 0x10 }
  - { offset: 0x249DA, size: 0x8, addend: 0x0, symName: __ZNKSt3__16vectorINS0_IiNS_9allocatorIiEEEENS1_IS3_EEE8max_sizeEv, symObjAddr: 0x7B70, symBinAddr: 0x1000089E0, symSize: 0x60 }
  - { offset: 0x24A02, size: 0x8, addend: 0x0, symName: __ZNKSt3__16vectorINS0_IiNS_9allocatorIiEEEENS1_IS3_EEE20__throw_length_errorB8ne180100Ev, symObjAddr: 0x7BD0, symBinAddr: 0x100008A40, symSize: 0x20 }
  - { offset: 0x24A28, size: 0x8, addend: 0x0, symName: __ZNKSt3__16vectorINS0_IiNS_9allocatorIiEEEENS1_IS3_EEE8capacityB8ne180100Ev, symObjAddr: 0x7BF0, symBinAddr: 0x100008A60, symSize: 0x40 }
  - { offset: 0x24A59, size: 0x8, addend: 0x0, symName: __ZNSt3__116allocator_traitsINS_9allocatorINS_6vectorIiNS1_IiEEEEEEE8max_sizeB8ne180100IS5_vEEmRKS5_, symObjAddr: 0x7C30, symBinAddr: 0x100008AA0, symSize: 0x20 }
  - { offset: 0x24A87, size: 0x8, addend: 0x0, symName: __ZNKSt3__16vectorINS0_IiNS_9allocatorIiEEEENS1_IS3_EEE7__allocB8ne180100Ev, symObjAddr: 0x7C50, symBinAddr: 0x100008AC0, symSize: 0x20 }
  - { offset: 0x24AAD, size: 0x8, addend: 0x0, symName: __ZNKSt3__19allocatorINS_6vectorIiNS0_IiEEEEE8max_sizeB8ne180100Ev, symObjAddr: 0x7C70, symBinAddr: 0x100008AE0, symSize: 0x20 }
  - { offset: 0x24AD3, size: 0x8, addend: 0x0, symName: __ZNKSt3__117__compressed_pairIPNS_6vectorIiNS_9allocatorIiEEEENS2_IS4_EEE6secondB8ne180100Ev, symObjAddr: 0x7C90, symBinAddr: 0x100008B00, symSize: 0x20 }
  - { offset: 0x24AF9, size: 0x8, addend: 0x0, symName: __ZNKSt3__122__compressed_pair_elemINS_9allocatorINS_6vectorIiNS1_IiEEEEEELi1ELb1EE5__getB8ne180100Ev, symObjAddr: 0x7CB0, symBinAddr: 0x100008B20, symSize: 0x10 }
  - { offset: 0x24B1F, size: 0x8, addend: 0x0, symName: __ZNKSt3__16vectorINS0_IiNS_9allocatorIiEEEENS1_IS3_EEE9__end_capB8ne180100Ev, symObjAddr: 0x7CC0, symBinAddr: 0x100008B30, symSize: 0x20 }
  - { offset: 0x24B45, size: 0x8, addend: 0x0, symName: __ZNKSt3__117__compressed_pairIPNS_6vectorIiNS_9allocatorIiEEEENS2_IS4_EEE5firstB8ne180100Ev, symObjAddr: 0x7CE0, symBinAddr: 0x100008B50, symSize: 0x20 }
  - { offset: 0x24B6B, size: 0x8, addend: 0x0, symName: __ZNKSt3__122__compressed_pair_elemIPNS_6vectorIiNS_9allocatorIiEEEELi0ELb0EE5__getB8ne180100Ev, symObjAddr: 0x7D00, symBinAddr: 0x100008B70, symSize: 0x10 }
  - { offset: 0x24B91, size: 0x8, addend: 0x0, symName: __ZNSt3__114__split_bufferINS_6vectorIiNS_9allocatorIiEEEERNS2_IS4_EEEC2EmmS6_, symObjAddr: 0x7D10, symBinAddr: 0x100008B80, symSize: 0xC0 }
  - { offset: 0x24C04, size: 0x8, addend: 0x0, symName: __ZNSt3__117__compressed_pairIPNS_6vectorIiNS_9allocatorIiEEEERNS2_IS4_EEEC1B8ne180100IDnS7_EEOT_OT0_, symObjAddr: 0x7DD0, symBinAddr: 0x100008C40, symSize: 0x30 }
  - { offset: 0x24C5C, size: 0x8, addend: 0x0, symName: __ZNSt3__114__split_bufferINS_6vectorIiNS_9allocatorIiEEEERNS2_IS4_EEE7__allocB8ne180100Ev, symObjAddr: 0x7E40, symBinAddr: 0x100008CB0, symSize: 0x20 }
  - { offset: 0x24C82, size: 0x8, addend: 0x0, symName: __ZNSt3__114__split_bufferINS_6vectorIiNS_9allocatorIiEEEERNS2_IS4_EEE9__end_capB8ne180100Ev, symObjAddr: 0x7E60, symBinAddr: 0x100008CD0, symSize: 0x20 }
  - { offset: 0x24CA8, size: 0x8, addend: 0x0, symName: __ZNSt3__117__compressed_pairIPNS_6vectorIiNS_9allocatorIiEEEERNS2_IS4_EEEC2B8ne180100IDnS7_EEOT_OT0_, symObjAddr: 0x7E80, symBinAddr: 0x100008CF0, symSize: 0x40 }
  - { offset: 0x24D00, size: 0x8, addend: 0x0, symName: __ZNSt3__122__compressed_pair_elemIRNS_9allocatorINS_6vectorIiNS1_IiEEEEEELi1ELb0EEC2B8ne180100IS6_vEEOT_, symObjAddr: 0x7EC0, symBinAddr: 0x100008D30, symSize: 0x20 }
  - { offset: 0x24D42, size: 0x8, addend: 0x0, symName: __ZNSt3__19allocatorINS_6vectorIiNS0_IiEEEEE8allocateB8ne180100Em, symObjAddr: 0x7EE0, symBinAddr: 0x100008D50, symSize: 0x50 }
  - { offset: 0x24D76, size: 0x8, addend: 0x0, symName: __ZNSt3__117__compressed_pairIPNS_6vectorIiNS_9allocatorIiEEEERNS2_IS4_EEE6secondB8ne180100Ev, symObjAddr: 0x7F30, symBinAddr: 0x100008DA0, symSize: 0x20 }
  - { offset: 0x24D9C, size: 0x8, addend: 0x0, symName: __ZNSt3__122__compressed_pair_elemIRNS_9allocatorINS_6vectorIiNS1_IiEEEEEELi1ELb0EE5__getB8ne180100Ev, symObjAddr: 0x7F50, symBinAddr: 0x100008DC0, symSize: 0x20 }
  - { offset: 0x24DC2, size: 0x8, addend: 0x0, symName: __ZNSt3__117__compressed_pairIPNS_6vectorIiNS_9allocatorIiEEEERNS2_IS4_EEE5firstB8ne180100Ev, symObjAddr: 0x7F70, symBinAddr: 0x100008DE0, symSize: 0x20 }
  - { offset: 0x24DF2, size: 0x8, addend: 0x0, symName: __ZNSt3__114__split_bufferINS_6vectorIiNS_9allocatorIiEEEERNS2_IS4_EEE21_ConstructTransactionC1B8ne180100EPPS4_m, symObjAddr: 0x7F90, symBinAddr: 0x100008E00, symSize: 0x30 }
  - { offset: 0x24E38, size: 0x8, addend: 0x0, symName: __ZNSt3__114__split_bufferINS_6vectorIiNS_9allocatorIiEEEERNS2_IS4_EEE21_ConstructTransactionD1B8ne180100Ev, symObjAddr: 0x7FC0, symBinAddr: 0x100008E30, symSize: 0x20 }
  - { offset: 0x24E62, size: 0x8, addend: 0x0, symName: __ZNSt3__114__split_bufferINS_6vectorIiNS_9allocatorIiEEEERNS2_IS4_EEE21_ConstructTransactionC2B8ne180100EPPS4_m, symObjAddr: 0x7FE0, symBinAddr: 0x100008E50, symSize: 0x40 }
  - { offset: 0x24EA8, size: 0x8, addend: 0x0, symName: __ZNSt3__114__split_bufferINS_6vectorIiNS_9allocatorIiEEEERNS2_IS4_EEE21_ConstructTransactionD2B8ne180100Ev, symObjAddr: 0x8020, symBinAddr: 0x100008E90, symSize: 0x20 }
  - { offset: 0x24ED2, size: 0x8, addend: 0x0, symName: __ZNKSt3__16vectorINS0_IiNS_9allocatorIiEEEENS1_IS3_EEE17__annotate_deleteB8ne180100Ev, symObjAddr: 0x8040, symBinAddr: 0x100008EB0, symSize: 0x10 }
  - { offset: 0x24EF8, size: 0x8, addend: 0x0, symName: __ZNSt3__116reverse_iteratorIPNS_6vectorIiNS_9allocatorIiEEEEEC1B8ne180100ES5_, symObjAddr: 0x81D0, symBinAddr: 0x100009040, symSize: 0x30 }
  - { offset: 0x24F30, size: 0x8, addend: 0x0, symName: __ZNKSt3__116reverse_iteratorIPNS_6vectorIiNS_9allocatorIiEEEEE4baseB8ne180100Ev, symObjAddr: 0x8200, symBinAddr: 0x100009070, symSize: 0x20 }
  - { offset: 0x24F56, size: 0x8, addend: 0x0, symName: __ZNKSt3__16vectorINS0_IiNS_9allocatorIiEEEENS1_IS3_EEE14__annotate_newB8ne180100Em, symObjAddr: 0x8260, symBinAddr: 0x1000090D0, symSize: 0x10 }
  - { offset: 0x24F8B, size: 0x8, addend: 0x0, symName: __ZNSt3__129_AllocatorDestroyRangeReverseINS_9allocatorINS_6vectorIiNS1_IiEEEEEENS_16reverse_iteratorIPS4_EEEC1B8ne180100ERS5_RS8_SB_, symObjAddr: 0x82D0, symBinAddr: 0x100009140, symSize: 0x40 }
  - { offset: 0x24FE2, size: 0x8, addend: 0x0, symName: __ZNSt3__116allocator_traitsINS_9allocatorINS_6vectorIiNS1_IiEEEEEEE9constructB8ne180100IS4_JS4_EvEEvRS5_PT_DpOT0_, symObjAddr: 0x8350, symBinAddr: 0x1000091C0, symSize: 0x30 }
  - { offset: 0x25039, size: 0x8, addend: 0x0, symName: __ZNKSt3__116reverse_iteratorIPNS_6vectorIiNS_9allocatorIiEEEEEdeB8ne180100Ev, symObjAddr: 0x83A0, symBinAddr: 0x100009210, symSize: 0x30 }
  - { offset: 0x2506D, size: 0x8, addend: 0x0, symName: __ZNSt3__116reverse_iteratorIPNS_6vectorIiNS_9allocatorIiEEEEEppB8ne180100Ev, symObjAddr: 0x83D0, symBinAddr: 0x100009240, symSize: 0x20 }
  - { offset: 0x25093, size: 0x8, addend: 0x0, symName: __ZNSt3__128__exception_guard_exceptionsINS_29_AllocatorDestroyRangeReverseINS_9allocatorINS_6vectorIiNS2_IiEEEEEENS_16reverse_iteratorIPS5_EEEEE10__completeB8ne180100Ev, symObjAddr: 0x83F0, symBinAddr: 0x100009260, symSize: 0x20 }
  - { offset: 0x250B9, size: 0x8, addend: 0x0, symName: __ZNSt3__128__exception_guard_exceptionsINS_29_AllocatorDestroyRangeReverseINS_9allocatorINS_6vectorIiNS2_IiEEEEEENS_16reverse_iteratorIPS5_EEEEED1B8ne180100Ev, symObjAddr: 0x8410, symBinAddr: 0x100009280, symSize: 0x20 }
  - { offset: 0x250E3, size: 0x8, addend: 0x0, symName: __ZNSt3__128__exception_guard_exceptionsINS_29_AllocatorDestroyRangeReverseINS_9allocatorINS_6vectorIiNS2_IiEEEEEENS_16reverse_iteratorIPS5_EEEEEC1B8ne180100ESA_, symObjAddr: 0x8430, symBinAddr: 0x1000092A0, symSize: 0x40 }
  - { offset: 0x2511B, size: 0x8, addend: 0x0, symName: __ZNSt3__128__exception_guard_exceptionsINS_29_AllocatorDestroyRangeReverseINS_9allocatorINS_6vectorIiNS2_IiEEEEEENS_16reverse_iteratorIPS5_EEEEEC2B8ne180100ESA_, symObjAddr: 0x8470, symBinAddr: 0x1000092E0, symSize: 0x30 }
  - { offset: 0x25153, size: 0x8, addend: 0x0, symName: __ZNSt3__129_AllocatorDestroyRangeReverseINS_9allocatorINS_6vectorIiNS1_IiEEEEEENS_16reverse_iteratorIPS4_EEEC2B8ne180100ERS5_RS8_SB_, symObjAddr: 0x84A0, symBinAddr: 0x100009310, symSize: 0x40 }
  - { offset: 0x251AA, size: 0x8, addend: 0x0, symName: __ZNSt3__19allocatorINS_6vectorIiNS0_IiEEEEE9constructB8ne180100IS3_JS3_EEEvPT_DpOT0_, symObjAddr: 0x84E0, symBinAddr: 0x100009350, symSize: 0x30 }
  - { offset: 0x25200, size: 0x8, addend: 0x0, symName: __ZNSt3__16vectorIiNS_9allocatorIiEEEC1B8ne180100EOS3_, symObjAddr: 0x8510, symBinAddr: 0x100009380, symSize: 0x30 }
  - { offset: 0x2523B, size: 0x8, addend: 0x0, symName: __ZNSt3__16vectorIiNS_9allocatorIiEEEC2B8ne180100EOS3_, symObjAddr: 0x8540, symBinAddr: 0x1000093B0, symSize: 0xD0 }
  - { offset: 0x25276, size: 0x8, addend: 0x0, symName: __ZNSt3__16vectorIiNS_9allocatorIiEEE7__allocB8ne180100Ev, symObjAddr: 0x8610, symBinAddr: 0x100009480, symSize: 0x20 }
  - { offset: 0x252A2, size: 0x8, addend: 0x0, symName: __ZNSt3__117__compressed_pairIPiNS_9allocatorIiEEEC1B8ne180100IDnS3_EEOT_OT0_, symObjAddr: 0x8630, symBinAddr: 0x1000094A0, symSize: 0x30 }
  - { offset: 0x252FA, size: 0x8, addend: 0x0, symName: __ZNSt3__16vectorIiNS_9allocatorIiEEE9__end_capB8ne180100Ev, symObjAddr: 0x8660, symBinAddr: 0x1000094D0, symSize: 0x20 }
  - { offset: 0x25320, size: 0x8, addend: 0x0, symName: __ZNSt3__117__compressed_pairIPiNS_9allocatorIiEEE6secondB8ne180100Ev, symObjAddr: 0x8680, symBinAddr: 0x1000094F0, symSize: 0x20 }
  - { offset: 0x25346, size: 0x8, addend: 0x0, symName: __ZNSt3__122__compressed_pair_elemINS_9allocatorIiEELi1ELb1EE5__getB8ne180100Ev, symObjAddr: 0x86A0, symBinAddr: 0x100009510, symSize: 0x10 }
  - { offset: 0x2536C, size: 0x8, addend: 0x0, symName: __ZNSt3__117__compressed_pairIPiNS_9allocatorIiEEEC2B8ne180100IDnS3_EEOT_OT0_, symObjAddr: 0x86B0, symBinAddr: 0x100009520, symSize: 0x40 }
  - { offset: 0x253C4, size: 0x8, addend: 0x0, symName: __ZNSt3__122__compressed_pair_elemIPiLi0ELb0EEC2B8ne180100IDnvEEOT_, symObjAddr: 0x86F0, symBinAddr: 0x100009560, symSize: 0x20 }
  - { offset: 0x25406, size: 0x8, addend: 0x0, symName: __ZNSt3__122__compressed_pair_elemINS_9allocatorIiEELi1ELb1EEC2B8ne180100IS2_vEEOT_, symObjAddr: 0x8710, symBinAddr: 0x100009580, symSize: 0x10 }
  - { offset: 0x25448, size: 0x8, addend: 0x0, symName: __ZNSt3__117__compressed_pairIPiNS_9allocatorIiEEE5firstB8ne180100Ev, symObjAddr: 0x8720, symBinAddr: 0x100009590, symSize: 0x20 }
  - { offset: 0x2546E, size: 0x8, addend: 0x0, symName: __ZNSt3__122__compressed_pair_elemIPiLi0ELb0EE5__getB8ne180100Ev, symObjAddr: 0x8740, symBinAddr: 0x1000095B0, symSize: 0x10 }
  - { offset: 0x2549A, size: 0x8, addend: 0x0, symName: __ZNSt3__119__to_address_helperINS_16reverse_iteratorIPNS_6vectorIiNS_9allocatorIiEEEEEEvE6__callB8ne180100ERKS7_, symObjAddr: 0x8750, symBinAddr: 0x1000095C0, symSize: 0x40 }
  - { offset: 0x254BD, size: 0x8, addend: 0x0, symName: __ZNKSt3__116reverse_iteratorIPNS_6vectorIiNS_9allocatorIiEEEEEptB8ne180100Ev, symObjAddr: 0x8790, symBinAddr: 0x100009600, symSize: 0x20 }
  - { offset: 0x254E3, size: 0x8, addend: 0x0, symName: __ZNSt3__128__exception_guard_exceptionsINS_29_AllocatorDestroyRangeReverseINS_9allocatorINS_6vectorIiNS2_IiEEEEEENS_16reverse_iteratorIPS5_EEEEED2B8ne180100Ev, symObjAddr: 0x87B0, symBinAddr: 0x100009620, symSize: 0x40 }
  - { offset: 0x2550D, size: 0x8, addend: 0x0, symName: __ZNKSt3__129_AllocatorDestroyRangeReverseINS_9allocatorINS_6vectorIiNS1_IiEEEEEENS_16reverse_iteratorIPS4_EEEclB8ne180100Ev, symObjAddr: 0x87F0, symBinAddr: 0x100009660, symSize: 0xF0 }
  - { offset: 0x25534, size: 0x8, addend: 0x0, symName: __ZNSt3__116reverse_iteratorINS0_IPNS_6vectorIiNS_9allocatorIiEEEEEEEC1B8ne180100ES6_, symObjAddr: 0x8950, symBinAddr: 0x1000097C0, symSize: 0x30 }
  - { offset: 0x2556C, size: 0x8, addend: 0x0, symName: __ZNSt3__116allocator_traitsINS_9allocatorINS_6vectorIiNS1_IiEEEEEEE7destroyB8ne180100IS4_vEEvRS5_PT_, symObjAddr: 0x89D0, symBinAddr: 0x100009840, symSize: 0x30 }
  - { offset: 0x255A9, size: 0x8, addend: 0x0, symName: __ZNSt3__116reverse_iteratorINS0_IPNS_6vectorIiNS_9allocatorIiEEEEEEEppB8ne180100Ev, symObjAddr: 0x8A20, symBinAddr: 0x100009890, symSize: 0x30 }
  - { offset: 0x255CF, size: 0x8, addend: 0x0, symName: __ZNKSt3__116reverse_iteratorINS0_IPNS_6vectorIiNS_9allocatorIiEEEEEEE4baseB8ne180100Ev, symObjAddr: 0x8A50, symBinAddr: 0x1000098C0, symSize: 0x20 }
  - { offset: 0x255F5, size: 0x8, addend: 0x0, symName: __ZNSt3__19allocatorINS_6vectorIiNS0_IiEEEEE7destroyB8ne180100EPS3_, symObjAddr: 0x8A70, symBinAddr: 0x1000098E0, symSize: 0x20 }
  - { offset: 0x2562F, size: 0x8, addend: 0x0, symName: __ZNSt3__119__to_address_helperINS_16reverse_iteratorINS1_IPNS_6vectorIiNS_9allocatorIiEEEEEEEEvE6__callB8ne180100ERKS8_, symObjAddr: 0x8A90, symBinAddr: 0x100009900, symSize: 0x40 }
  - { offset: 0x25652, size: 0x8, addend: 0x0, symName: __ZNKSt3__116reverse_iteratorINS0_IPNS_6vectorIiNS_9allocatorIiEEEEEEEptB8ne180100Ev, symObjAddr: 0x8AD0, symBinAddr: 0x100009940, symSize: 0x20 }
  - { offset: 0x25678, size: 0x8, addend: 0x0, symName: __ZNKSt3__116reverse_iteratorINS0_IPNS_6vectorIiNS_9allocatorIiEEEEEEEdeB8ne180100Ev, symObjAddr: 0x8AF0, symBinAddr: 0x100009960, symSize: 0x40 }
  - { offset: 0x256AC, size: 0x8, addend: 0x0, symName: __ZNSt3__116reverse_iteratorIPNS_6vectorIiNS_9allocatorIiEEEEEmmB8ne180100Ev, symObjAddr: 0x8B30, symBinAddr: 0x1000099A0, symSize: 0x20 }
  - { offset: 0x256D2, size: 0x8, addend: 0x0, symName: __ZNSt3__116reverse_iteratorINS0_IPNS_6vectorIiNS_9allocatorIiEEEEEEEC2B8ne180100ES6_, symObjAddr: 0x8B50, symBinAddr: 0x1000099C0, symSize: 0x40 }
  - { offset: 0x2570A, size: 0x8, addend: 0x0, symName: __ZNSt3__116reverse_iteratorIPNS_6vectorIiNS_9allocatorIiEEEEEC2B8ne180100ES5_, symObjAddr: 0x8B90, symBinAddr: 0x100009A00, symSize: 0x30 }
  - { offset: 0x25742, size: 0x8, addend: 0x0, symName: __ZNSt3__114__split_bufferINS_6vectorIiNS_9allocatorIiEEEERNS2_IS4_EEED2Ev, symObjAddr: 0x8BC0, symBinAddr: 0x100009A30, symSize: 0x70 }
  - { offset: 0x2576E, size: 0x8, addend: 0x0, symName: __ZNSt3__114__split_bufferINS_6vectorIiNS_9allocatorIiEEEERNS2_IS4_EEE5clearB8ne180100Ev, symObjAddr: 0x8C30, symBinAddr: 0x100009AA0, symSize: 0x20 }
  - { offset: 0x25794, size: 0x8, addend: 0x0, symName: __ZNSt3__116allocator_traitsINS_9allocatorINS_6vectorIiNS1_IiEEEEEEE10deallocateB8ne180100ERS5_PS4_m, symObjAddr: 0x8C50, symBinAddr: 0x100009AC0, symSize: 0x30 }
  - { offset: 0x257D6, size: 0x8, addend: 0x0, symName: __ZNKSt3__114__split_bufferINS_6vectorIiNS_9allocatorIiEEEERNS2_IS4_EEE8capacityB8ne180100Ev, symObjAddr: 0x8C80, symBinAddr: 0x100009AF0, symSize: 0x40 }
  - { offset: 0x257FC, size: 0x8, addend: 0x0, symName: __ZNSt3__114__split_bufferINS_6vectorIiNS_9allocatorIiEEEERNS2_IS4_EEE17__destruct_at_endB8ne180100EPS4_, symObjAddr: 0x8CC0, symBinAddr: 0x100009B30, symSize: 0x30 }
  - { offset: 0x25830, size: 0x8, addend: 0x0, symName: __ZNSt3__114__split_bufferINS_6vectorIiNS_9allocatorIiEEEERNS2_IS4_EEE17__destruct_at_endB8ne180100EPS4_NS_17integral_constantIbLb0EEE, symObjAddr: 0x8CF0, symBinAddr: 0x100009B60, symSize: 0x80 }
  - { offset: 0x25870, size: 0x8, addend: 0x0, symName: __ZNSt3__19allocatorINS_6vectorIiNS0_IiEEEEE10deallocateB8ne180100EPS3_m, symObjAddr: 0x8D70, symBinAddr: 0x100009BE0, symSize: 0x50 }
  - { offset: 0x258B2, size: 0x8, addend: 0x0, symName: __ZNKSt3__114__split_bufferINS_6vectorIiNS_9allocatorIiEEEERNS2_IS4_EEE9__end_capB8ne180100Ev, symObjAddr: 0x8DC0, symBinAddr: 0x100009C30, symSize: 0x20 }
  - { offset: 0x258D8, size: 0x8, addend: 0x0, symName: __ZNKSt3__117__compressed_pairIPNS_6vectorIiNS_9allocatorIiEEEERNS2_IS4_EEE5firstB8ne180100Ev, symObjAddr: 0x8DE0, symBinAddr: 0x100009C50, symSize: 0x20 }
  - { offset: 0x258FE, size: 0x8, addend: 0x0, symName: __ZNSt3__16vectorINS0_IiNS_9allocatorIiEEEENS1_IS3_EEE22__base_destruct_at_endB8ne180100EPS3_, symObjAddr: 0x8E00, symBinAddr: 0x100009C70, symSize: 0x80 }
  - { offset: 0x25942, size: 0x8, addend: 0x0, symName: __ZNKSt3__16vectorINS0_IiNS_9allocatorIiEEEENS1_IS3_EEE17__annotate_shrinkB8ne180100Em, symObjAddr: 0x8E80, symBinAddr: 0x100009CF0, symSize: 0x10 }
  - { offset: 0x25977, size: 0x8, addend: 0x0, symName: __ZNKSt3__16vectorIiNS_9allocatorIiEEE4sizeB8ne180100Ev, symObjAddr: 0x8E90, symBinAddr: 0x100009D00, symSize: 0x20 }
  - { offset: 0x2599D, size: 0x8, addend: 0x0, symName: __ZNSt3__16vectorIiNS_9allocatorIiEEE8__appendEm, symObjAddr: 0x8EB0, symBinAddr: 0x100009D20, symSize: 0x100 }
  - { offset: 0x259F8, size: 0x8, addend: 0x0, symName: __ZNSt3__16vectorIiNS_9allocatorIiEEE17__destruct_at_endB8ne180100EPi, symObjAddr: 0x8FB0, symBinAddr: 0x100009E20, symSize: 0x50 }
  - { offset: 0x25A3C, size: 0x8, addend: 0x0, symName: __ZNSt3__16vectorIiNS_9allocatorIiEEE18__construct_at_endEm, symObjAddr: 0x9000, symBinAddr: 0x100009E70, symSize: 0xC0 }
  - { offset: 0x25AAE, size: 0x8, addend: 0x0, symName: __ZNKSt3__16vectorIiNS_9allocatorIiEEE11__recommendB8ne180100Em, symObjAddr: 0x90C0, symBinAddr: 0x100009F30, symSize: 0x90 }
  - { offset: 0x25B03, size: 0x8, addend: 0x0, symName: __ZNSt3__114__split_bufferIiRNS_9allocatorIiEEEC1EmmS3_, symObjAddr: 0x9150, symBinAddr: 0x100009FC0, symSize: 0x40 }
  - { offset: 0x25B59, size: 0x8, addend: 0x0, symName: __ZNSt3__114__split_bufferIiRNS_9allocatorIiEEE18__construct_at_endEm, symObjAddr: 0x9190, symBinAddr: 0x10000A000, symSize: 0xB0 }
  - { offset: 0x25B9C, size: 0x8, addend: 0x0, symName: __ZNSt3__114__split_bufferIiRNS_9allocatorIiEEED1Ev, symObjAddr: 0x9360, symBinAddr: 0x10000A1D0, symSize: 0x20 }
  - { offset: 0x25BE3, size: 0x8, addend: 0x0, symName: __ZNSt3__16vectorIiNS_9allocatorIiEEE21_ConstructTransactionC1B8ne180100ERS3_m, symObjAddr: 0x9380, symBinAddr: 0x10000A1F0, symSize: 0x30 }
  - { offset: 0x25C2B, size: 0x8, addend: 0x0, symName: __ZNSt3__116allocator_traitsINS_9allocatorIiEEE9constructB8ne180100IiJEvEEvRS2_PT_DpOT0_, symObjAddr: 0x93B0, symBinAddr: 0x10000A220, symSize: 0x30 }
  - { offset: 0x25C6D, size: 0x8, addend: 0x0, symName: __ZNSt3__16vectorIiNS_9allocatorIiEEE21_ConstructTransactionD1B8ne180100Ev, symObjAddr: 0x93F0, symBinAddr: 0x10000A260, symSize: 0x20 }
  - { offset: 0x25C97, size: 0x8, addend: 0x0, symName: __ZNSt3__16vectorIiNS_9allocatorIiEEE21_ConstructTransactionC2B8ne180100ERS3_m, symObjAddr: 0x9410, symBinAddr: 0x10000A280, symSize: 0x40 }
  - { offset: 0x25CDF, size: 0x8, addend: 0x0, symName: __ZNSt3__19allocatorIiE9constructB8ne180100IiJEEEvPT_DpOT0_, symObjAddr: 0x9450, symBinAddr: 0x10000A2C0, symSize: 0x20 }
  - { offset: 0x25D21, size: 0x8, addend: 0x0, symName: __ZNSt3__16vectorIiNS_9allocatorIiEEE21_ConstructTransactionD2B8ne180100Ev, symObjAddr: 0x9470, symBinAddr: 0x10000A2E0, symSize: 0x20 }
  - { offset: 0x25D4B, size: 0x8, addend: 0x0, symName: __ZNKSt3__16vectorIiNS_9allocatorIiEEE8max_sizeEv, symObjAddr: 0x9490, symBinAddr: 0x10000A300, symSize: 0x60 }
  - { offset: 0x25D73, size: 0x8, addend: 0x0, symName: __ZNKSt3__16vectorIiNS_9allocatorIiEEE20__throw_length_errorB8ne180100Ev, symObjAddr: 0x94F0, symBinAddr: 0x10000A360, symSize: 0x20 }
  - { offset: 0x25D99, size: 0x8, addend: 0x0, symName: __ZNKSt3__16vectorIiNS_9allocatorIiEEE8capacityB8ne180100Ev, symObjAddr: 0x9510, symBinAddr: 0x10000A380, symSize: 0x30 }
  - { offset: 0x25DCA, size: 0x8, addend: 0x0, symName: __ZNSt3__116allocator_traitsINS_9allocatorIiEEE8max_sizeB8ne180100IS2_vEEmRKS2_, symObjAddr: 0x9540, symBinAddr: 0x10000A3B0, symSize: 0x20 }
  - { offset: 0x25DF8, size: 0x8, addend: 0x0, symName: __ZNKSt3__16vectorIiNS_9allocatorIiEEE7__allocB8ne180100Ev, symObjAddr: 0x9560, symBinAddr: 0x10000A3D0, symSize: 0x20 }
  - { offset: 0x25E1E, size: 0x8, addend: 0x0, symName: __ZNKSt3__19allocatorIiE8max_sizeB8ne180100Ev, symObjAddr: 0x9580, symBinAddr: 0x10000A3F0, symSize: 0x20 }
  - { offset: 0x25E44, size: 0x8, addend: 0x0, symName: __ZNKSt3__117__compressed_pairIPiNS_9allocatorIiEEE6secondB8ne180100Ev, symObjAddr: 0x95A0, symBinAddr: 0x10000A410, symSize: 0x20 }
  - { offset: 0x25E6A, size: 0x8, addend: 0x0, symName: __ZNKSt3__122__compressed_pair_elemINS_9allocatorIiEELi1ELb1EE5__getB8ne180100Ev, symObjAddr: 0x95C0, symBinAddr: 0x10000A430, symSize: 0x10 }
  - { offset: 0x25E90, size: 0x8, addend: 0x0, symName: __ZNKSt3__16vectorIiNS_9allocatorIiEEE9__end_capB8ne180100Ev, symObjAddr: 0x95D0, symBinAddr: 0x10000A440, symSize: 0x20 }
  - { offset: 0x25EB6, size: 0x8, addend: 0x0, symName: __ZNKSt3__117__compressed_pairIPiNS_9allocatorIiEEE5firstB8ne180100Ev, symObjAddr: 0x95F0, symBinAddr: 0x10000A460, symSize: 0x20 }
  - { offset: 0x25EDC, size: 0x8, addend: 0x0, symName: __ZNKSt3__122__compressed_pair_elemIPiLi0ELb0EE5__getB8ne180100Ev, symObjAddr: 0x9610, symBinAddr: 0x10000A480, symSize: 0x10 }
  - { offset: 0x25F02, size: 0x8, addend: 0x0, symName: __ZNSt3__114__split_bufferIiRNS_9allocatorIiEEEC2EmmS3_, symObjAddr: 0x9620, symBinAddr: 0x10000A490, symSize: 0xD0 }
  - { offset: 0x25F75, size: 0x8, addend: 0x0, symName: __ZNSt3__117__compressed_pairIPiRNS_9allocatorIiEEEC1B8ne180100IDnS4_EEOT_OT0_, symObjAddr: 0x96F0, symBinAddr: 0x10000A560, symSize: 0x30 }
  - { offset: 0x25FCD, size: 0x8, addend: 0x0, symName: __ZNSt3__114__split_bufferIiRNS_9allocatorIiEEE7__allocB8ne180100Ev, symObjAddr: 0x9760, symBinAddr: 0x10000A5D0, symSize: 0x20 }
  - { offset: 0x25FF3, size: 0x8, addend: 0x0, symName: __ZNSt3__114__split_bufferIiRNS_9allocatorIiEEE9__end_capB8ne180100Ev, symObjAddr: 0x9780, symBinAddr: 0x10000A5F0, symSize: 0x20 }
  - { offset: 0x26019, size: 0x8, addend: 0x0, symName: __ZNSt3__117__compressed_pairIPiRNS_9allocatorIiEEEC2B8ne180100IDnS4_EEOT_OT0_, symObjAddr: 0x97A0, symBinAddr: 0x10000A610, symSize: 0x40 }
  - { offset: 0x26071, size: 0x8, addend: 0x0, symName: __ZNSt3__122__compressed_pair_elemIRNS_9allocatorIiEELi1ELb0EEC2B8ne180100IS3_vEEOT_, symObjAddr: 0x97E0, symBinAddr: 0x10000A650, symSize: 0x20 }
  - { offset: 0x260B3, size: 0x8, addend: 0x0, symName: __ZNSt3__19allocatorIiE8allocateB8ne180100Em, symObjAddr: 0x9800, symBinAddr: 0x10000A670, symSize: 0x50 }
  - { offset: 0x260E7, size: 0x8, addend: 0x0, symName: __ZNSt3__117__compressed_pairIPiRNS_9allocatorIiEEE6secondB8ne180100Ev, symObjAddr: 0x9850, symBinAddr: 0x10000A6C0, symSize: 0x20 }
  - { offset: 0x2610D, size: 0x8, addend: 0x0, symName: __ZNSt3__122__compressed_pair_elemIRNS_9allocatorIiEELi1ELb0EE5__getB8ne180100Ev, symObjAddr: 0x9870, symBinAddr: 0x10000A6E0, symSize: 0x20 }
  - { offset: 0x26133, size: 0x8, addend: 0x0, symName: __ZNSt3__117__compressed_pairIPiRNS_9allocatorIiEEE5firstB8ne180100Ev, symObjAddr: 0x9890, symBinAddr: 0x10000A700, symSize: 0x20 }
  - { offset: 0x26163, size: 0x8, addend: 0x0, symName: __ZNSt3__114__split_bufferIiRNS_9allocatorIiEEE21_ConstructTransactionC1B8ne180100EPPim, symObjAddr: 0x98B0, symBinAddr: 0x10000A720, symSize: 0x30 }
  - { offset: 0x261A9, size: 0x8, addend: 0x0, symName: __ZNSt3__114__split_bufferIiRNS_9allocatorIiEEE21_ConstructTransactionD1B8ne180100Ev, symObjAddr: 0x98E0, symBinAddr: 0x10000A750, symSize: 0x20 }
  - { offset: 0x261D3, size: 0x8, addend: 0x0, symName: __ZNSt3__114__split_bufferIiRNS_9allocatorIiEEE21_ConstructTransactionC2B8ne180100EPPim, symObjAddr: 0x9900, symBinAddr: 0x10000A770, symSize: 0x40 }
  - { offset: 0x26219, size: 0x8, addend: 0x0, symName: __ZNSt3__114__split_bufferIiRNS_9allocatorIiEEE21_ConstructTransactionD2B8ne180100Ev, symObjAddr: 0x9940, symBinAddr: 0x10000A7B0, symSize: 0x20 }
  - { offset: 0x26243, size: 0x8, addend: 0x0, symName: __ZNKSt3__16vectorIiNS_9allocatorIiEEE17__annotate_deleteB8ne180100Ev, symObjAddr: 0x9960, symBinAddr: 0x10000A7D0, symSize: 0x10 }
  - { offset: 0x26269, size: 0x8, addend: 0x0, symName: __ZNSt3__116reverse_iteratorIPiEC1B8ne180100ES1_, symObjAddr: 0x99E0, symBinAddr: 0x10000A850, symSize: 0x30 }
  - { offset: 0x262A1, size: 0x8, addend: 0x0, symName: __ZNKSt3__116reverse_iteratorIPiE4baseB8ne180100Ev, symObjAddr: 0x9A10, symBinAddr: 0x10000A880, symSize: 0x20 }
  - { offset: 0x262C7, size: 0x8, addend: 0x0, symName: __ZNKSt3__16vectorIiNS_9allocatorIiEEE14__annotate_newB8ne180100Em, symObjAddr: 0x9A70, symBinAddr: 0x10000A8E0, symSize: 0x10 }
  - { offset: 0x26318, size: 0x8, addend: 0x0, symName: __ZNKSt3__111__move_loopINS_17_ClassicAlgPolicyEEclB8ne180100INS_16reverse_iteratorIPiEES6_S6_EENS_4pairIT_T1_EES8_T0_S9_, symObjAddr: 0x9EC0, symBinAddr: 0x10000AD30, symSize: 0xA0 }
  - { offset: 0x26389, size: 0x8, addend: 0x0, symName: __ZNSt3__18_IterOpsINS_17_ClassicAlgPolicyEE11__iter_moveB8ne180100IRNS_16reverse_iteratorIPiEETnNS_9enable_ifIXsr12is_referenceIDTdeclsr3stdE7declvalIRT_EEEEE5valueEiE4typeELi0EEEDTclsr3stdE4movedeclsr3stdE7declvalISA_EEEEOS9_, symObjAddr: 0xA0E0, symBinAddr: 0x10000AF50, symSize: 0x20 }
  - { offset: 0x263BB, size: 0x8, addend: 0x0, symName: __ZNKSt3__116reverse_iteratorIPiEdeB8ne180100Ev, symObjAddr: 0xA100, symBinAddr: 0x10000AF70, symSize: 0x30 }
  - { offset: 0x263EF, size: 0x8, addend: 0x0, symName: __ZNSt3__116reverse_iteratorIPiEppB8ne180100Ev, symObjAddr: 0xA130, symBinAddr: 0x10000AFA0, symSize: 0x20 }
  - { offset: 0x26415, size: 0x8, addend: 0x0, symName: __ZNSt3__18_IterOpsINS_17_ClassicAlgPolicyEE25__validate_iter_referenceB8ne180100IRNS_16reverse_iteratorIPiEEEEvv, symObjAddr: 0xA150, symBinAddr: 0x10000AFC0, symSize: 0x10 }
  - { offset: 0x26433, size: 0x8, addend: 0x0, symName: __ZNSt3__118__unwrap_iter_implINS_16reverse_iteratorIPiEELb0EE8__unwrapB8ne180100ES3_, symObjAddr: 0xA160, symBinAddr: 0x10000AFD0, symSize: 0x20 }
  - { offset: 0x2645C, size: 0x8, addend: 0x0, symName: __ZNSt3__14pairINS_16reverse_iteratorIPiEES3_EC1B8ne180100IS3_S3_TnNS_9enable_ifIXclsr10_CheckArgsE17__enable_implicitIT_T0_EEEiE4typeELi0EEEOS7_OS8_, symObjAddr: 0xA180, symBinAddr: 0x10000AFF0, symSize: 0x30 }
  - { offset: 0x264BA, size: 0x8, addend: 0x0, symName: __ZNSt3__14pairINS_16reverse_iteratorIPiEES3_EC2B8ne180100IS3_S3_TnNS_9enable_ifIXclsr10_CheckArgsE17__enable_implicitIT_T0_EEEiE4typeELi0EEEOS7_OS8_, symObjAddr: 0xA1B0, symBinAddr: 0x10000B020, symSize: 0x40 }
  - { offset: 0x26518, size: 0x8, addend: 0x0, symName: __ZNSt3__118__unwrap_iter_implINS_16reverse_iteratorIPiEELb0EE8__rewrapB8ne180100ES3_S3_, symObjAddr: 0xA1F0, symBinAddr: 0x10000B060, symSize: 0x30 }
  - { offset: 0x26545, size: 0x8, addend: 0x0, symName: __ZNSt3__116reverse_iteratorIPiEC2B8ne180100ES1_, symObjAddr: 0xA220, symBinAddr: 0x10000B090, symSize: 0x30 }
  - { offset: 0x2657D, size: 0x8, addend: 0x0, symName: __ZNSt3__114__split_bufferIiRNS_9allocatorIiEEED2Ev, symObjAddr: 0xA250, symBinAddr: 0x10000B0C0, symSize: 0x70 }
  - { offset: 0x265A9, size: 0x8, addend: 0x0, symName: __ZNSt3__114__split_bufferIiRNS_9allocatorIiEEE5clearB8ne180100Ev, symObjAddr: 0xA2C0, symBinAddr: 0x10000B130, symSize: 0x20 }
  - { offset: 0x265CF, size: 0x8, addend: 0x0, symName: __ZNSt3__116allocator_traitsINS_9allocatorIiEEE10deallocateB8ne180100ERS2_Pim, symObjAddr: 0xA2E0, symBinAddr: 0x10000B150, symSize: 0x30 }
  - { offset: 0x26611, size: 0x8, addend: 0x0, symName: __ZNKSt3__114__split_bufferIiRNS_9allocatorIiEEE8capacityB8ne180100Ev, symObjAddr: 0xA310, symBinAddr: 0x10000B180, symSize: 0x30 }
  - { offset: 0x26637, size: 0x8, addend: 0x0, symName: __ZNSt3__114__split_bufferIiRNS_9allocatorIiEEE17__destruct_at_endB8ne180100EPi, symObjAddr: 0xA340, symBinAddr: 0x10000B1B0, symSize: 0x30 }
  - { offset: 0x2666B, size: 0x8, addend: 0x0, symName: __ZNSt3__114__split_bufferIiRNS_9allocatorIiEEE17__destruct_at_endB8ne180100EPiNS_17integral_constantIbLb0EEE, symObjAddr: 0xA370, symBinAddr: 0x10000B1E0, symSize: 0x80 }
  - { offset: 0x266AB, size: 0x8, addend: 0x0, symName: __ZNSt3__116allocator_traitsINS_9allocatorIiEEE7destroyB8ne180100IivEEvRS2_PT_, symObjAddr: 0xA3F0, symBinAddr: 0x10000B260, symSize: 0x30 }
  - { offset: 0x266E8, size: 0x8, addend: 0x0, symName: __ZNSt3__19allocatorIiE7destroyB8ne180100EPi, symObjAddr: 0xA420, symBinAddr: 0x10000B290, symSize: 0x10 }
  - { offset: 0x2671C, size: 0x8, addend: 0x0, symName: __ZNSt3__19allocatorIiE10deallocateB8ne180100EPim, symObjAddr: 0xA430, symBinAddr: 0x10000B2A0, symSize: 0x40 }
  - { offset: 0x2675E, size: 0x8, addend: 0x0, symName: __ZNKSt3__114__split_bufferIiRNS_9allocatorIiEEE9__end_capB8ne180100Ev, symObjAddr: 0xA470, symBinAddr: 0x10000B2E0, symSize: 0x20 }
  - { offset: 0x26784, size: 0x8, addend: 0x0, symName: __ZNKSt3__117__compressed_pairIPiRNS_9allocatorIiEEE5firstB8ne180100Ev, symObjAddr: 0xA490, symBinAddr: 0x10000B300, symSize: 0x20 }
  - { offset: 0x267AA, size: 0x8, addend: 0x0, symName: __ZNSt3__16vectorIiNS_9allocatorIiEEE22__base_destruct_at_endB8ne180100EPi, symObjAddr: 0xA4B0, symBinAddr: 0x10000B320, symSize: 0x80 }
  - { offset: 0x267EE, size: 0x8, addend: 0x0, symName: __ZNKSt3__16vectorIiNS_9allocatorIiEEE17__annotate_shrinkB8ne180100Em, symObjAddr: 0xA530, symBinAddr: 0x10000B3A0, symSize: 0x10 }
  - { offset: 0x26823, size: 0x8, addend: 0x0, symName: __ZNKSt3__111__wrap_iterIPiEdeB8ne180100Ev, symObjAddr: 0xA6A0, symBinAddr: 0x10000B510, symSize: 0x20 }
  - { offset: 0x26849, size: 0x8, addend: 0x0, symName: __ZNSt3__111__wrap_iterIPiEppB8ne180100Ev, symObjAddr: 0xA6C0, symBinAddr: 0x10000B530, symSize: 0x20 }
  - { offset: 0x2686F, size: 0x8, addend: 0x0, symName: __ZNKSt3__111__wrap_iterIPiE4baseB8ne180100Ev, symObjAddr: 0xA6E0, symBinAddr: 0x10000B550, symSize: 0x20 }
  - { offset: 0x26895, size: 0x8, addend: 0x0, symName: __ZNSt3__16vectorIiNS_9allocatorIiEEE11__make_iterB8ne180100EPi, symObjAddr: 0xA700, symBinAddr: 0x10000B570, symSize: 0x30 }
  - { offset: 0x268CA, size: 0x8, addend: 0x0, symName: __ZNSt3__111__wrap_iterIPiEC1B8ne180100ES1_, symObjAddr: 0xA730, symBinAddr: 0x10000B5A0, symSize: 0x30 }
  - { offset: 0x26902, size: 0x8, addend: 0x0, symName: __ZNSt3__111__wrap_iterIPiEC2B8ne180100ES1_, symObjAddr: 0xA760, symBinAddr: 0x10000B5D0, symSize: 0x20 }
  - { offset: 0x2693A, size: 0x8, addend: 0x0, symName: __ZNSt3__16vectorINS0_IiNS_9allocatorIiEEEENS1_IS3_EEED2B8ne180100Ev, symObjAddr: 0xA780, symBinAddr: 0x10000B5F0, symSize: 0x40 }
  - { offset: 0x26964, size: 0x8, addend: 0x0, symName: __ZNSt3__16vectorINS0_IiNS_9allocatorIiEEEENS1_IS3_EEE16__destroy_vectorC1B8ne180100ERS5_, symObjAddr: 0xA7C0, symBinAddr: 0x10000B630, symSize: 0x30 }
  - { offset: 0x2699D, size: 0x8, addend: 0x0, symName: __ZNSt3__16vectorINS0_IiNS_9allocatorIiEEEENS1_IS3_EEE16__destroy_vectorclB8ne180100Ev, symObjAddr: 0xA7F0, symBinAddr: 0x10000B660, symSize: 0x80 }
  - { offset: 0x269C3, size: 0x8, addend: 0x0, symName: __ZNSt3__16vectorINS0_IiNS_9allocatorIiEEEENS1_IS3_EEE16__destroy_vectorC2B8ne180100ERS5_, symObjAddr: 0xA870, symBinAddr: 0x10000B6E0, symSize: 0x20 }
  - { offset: 0x269FC, size: 0x8, addend: 0x0, symName: __ZNSt3__16vectorINS0_IiNS_9allocatorIiEEEENS1_IS3_EEE7__clearB8ne180100Ev, symObjAddr: 0xA890, symBinAddr: 0x10000B700, symSize: 0x20 }
  - { offset: 0x26A22, size: 0x8, addend: 0x0, symName: __ZN6MatrixD2Ev, symObjAddr: 0xA8B0, symBinAddr: 0x10000B720, symSize: 0x20 }
  - { offset: 0x26A4E, size: 0x8, addend: 0x0, symName: __ZNKSt3__111__wrap_iterIPP4DataE4baseB8ne180100Ev, symObjAddr: 0xA910, symBinAddr: 0x10000B780, symSize: 0x20 }
  - { offset: 0x26A74, size: 0x8, addend: 0x0, symName: __ZNKSt3__116reverse_iteratorINS_11__wrap_iterIPiEEE4baseB8ne180100Ev, symObjAddr: 0xA960, symBinAddr: 0x10000B7D0, symSize: 0x20 }
  - { offset: 0x26A9A, size: 0x8, addend: 0x0, symName: __ZNSt3__111__wrap_iterIPiEmmB8ne180100Ev, symObjAddr: 0xA9C0, symBinAddr: 0x10000B830, symSize: 0x20 }
  - { offset: 0x26AC0, size: 0x8, addend: 0x0, symName: __ZNKSt3__111__wrap_iterIPiEmiB8ne180100El, symObjAddr: 0xA9E0, symBinAddr: 0x10000B850, symSize: 0x30 }
  - { offset: 0x26AF4, size: 0x8, addend: 0x0, symName: __ZNSt3__116reverse_iteratorINS_11__wrap_iterIPiEEEC1B8ne180100ES3_, symObjAddr: 0xAA10, symBinAddr: 0x10000B880, symSize: 0x30 }
  - { offset: 0x26B2C, size: 0x8, addend: 0x0, symName: __ZNKSt3__111__wrap_iterIPiEplB8ne180100El, symObjAddr: 0xAA40, symBinAddr: 0x10000B8B0, symSize: 0x40 }
  - { offset: 0x26B6E, size: 0x8, addend: 0x0, symName: __ZNSt3__111__wrap_iterIPiEpLB8ne180100El, symObjAddr: 0xAA80, symBinAddr: 0x10000B8F0, symSize: 0x20 }
  - { offset: 0x26BA2, size: 0x8, addend: 0x0, symName: __ZNSt3__116reverse_iteratorINS_11__wrap_iterIPiEEEC2B8ne180100ES3_, symObjAddr: 0xAAA0, symBinAddr: 0x10000B910, symSize: 0x30 }
  - { offset: 0x26BDA, size: 0x8, addend: 0x0, symName: __ZN5GraphD2Ev, symObjAddr: 0xAAD0, symBinAddr: 0x10000B940, symSize: 0x30 }
  - { offset: 0x26C06, size: 0x8, addend: 0x0, symName: __ZN12DataProviderD2Ev, symObjAddr: 0xAB00, symBinAddr: 0x10000B970, symSize: 0x20 }
  - { offset: 0x26C53, size: 0x8, addend: 0x0, symName: __ZNKSt3__113basic_ostreamIcNS_11char_traitsIcEEE6sentrycvbB8ne180100Ev, symObjAddr: 0xAD10, symBinAddr: 0x10000BB80, symSize: 0x20 }
  - { offset: 0x26C79, size: 0x8, addend: 0x0, symName: __ZNSt3__119ostreambuf_iteratorIcNS_11char_traitsIcEEEC1B8ne180100ERNS_13basic_ostreamIcS2_EE, symObjAddr: 0xAF50, symBinAddr: 0x10000BDC0, symSize: 0x30 }
  - { offset: 0x26CB1, size: 0x8, addend: 0x0, symName: __ZNKSt3__18ios_base5flagsB8ne180100Ev, symObjAddr: 0xAF80, symBinAddr: 0x10000BDF0, symSize: 0x20 }
  - { offset: 0x26CD9, size: 0x8, addend: 0x0, symName: __ZNKSt3__19basic_iosIcNS_11char_traitsIcEEE4fillB8ne180100Ev, symObjAddr: 0xAFA0, symBinAddr: 0x10000BE10, symSize: 0x70 }
  - { offset: 0x26CFF, size: 0x8, addend: 0x0, symName: __ZNKSt3__119ostreambuf_iteratorIcNS_11char_traitsIcEEE6failedB8ne180100Ev, symObjAddr: 0xB010, symBinAddr: 0x10000BE80, symSize: 0x20 }
  - { offset: 0x26D25, size: 0x8, addend: 0x0, symName: __ZNKSt3__18ios_base5widthB8ne180100Ev, symObjAddr: 0xB030, symBinAddr: 0x10000BEA0, symSize: 0x20 }
  - { offset: 0x26D4D, size: 0x8, addend: 0x0, symName: __ZNSt3__115basic_streambufIcNS_11char_traitsIcEEE5sputnB8ne180100EPKcl, symObjAddr: 0xB050, symBinAddr: 0x10000BEC0, symSize: 0x30 }
  - { offset: 0x26D8F, size: 0x8, addend: 0x0, symName: __ZNSt3__112basic_stringIcNS_11char_traitsIcEENS_9allocatorIcEEEC1B8ne180100Emc, symObjAddr: 0xB080, symBinAddr: 0x10000BEF0, symSize: 0x30 }
  - { offset: 0x26DD7, size: 0x8, addend: 0x0, symName: __ZNSt3__112basic_stringIcNS_11char_traitsIcEENS_9allocatorIcEEE4dataB8ne180100Ev, symObjAddr: 0xB0B0, symBinAddr: 0x10000BF20, symSize: 0x30 }
  - { offset: 0x26DFD, size: 0x8, addend: 0x0, symName: __ZNSt3__18ios_base5widthB8ne180100El, symObjAddr: 0xB0E0, symBinAddr: 0x10000BF50, symSize: 0x30 }
  - { offset: 0x26E43, size: 0x8, addend: 0x0, symName: __ZNSt3__112basic_stringIcNS_11char_traitsIcEENS_9allocatorIcEEEC2B8ne180100Emc, symObjAddr: 0xB110, symBinAddr: 0x10000BF80, symSize: 0x50 }
  - { offset: 0x26E8B, size: 0x8, addend: 0x0, symName: __ZNSt3__117__compressed_pairINS_12basic_stringIcNS_11char_traitsIcEENS_9allocatorIcEEE5__repES5_EC1B8ne180100INS_18__default_init_tagESA_EEOT_OT0_, symObjAddr: 0xB160, symBinAddr: 0x10000BFD0, symSize: 0x30 }
  - { offset: 0x26EE3, size: 0x8, addend: 0x0, symName: __ZNSt3__117__compressed_pairINS_12basic_stringIcNS_11char_traitsIcEENS_9allocatorIcEEE5__repES5_EC2B8ne180100INS_18__default_init_tagESA_EEOT_OT0_, symObjAddr: 0xB190, symBinAddr: 0x10000C000, symSize: 0x30 }
  - { offset: 0x26F3B, size: 0x8, addend: 0x0, symName: __ZNSt3__119ostreambuf_iteratorIcNS_11char_traitsIcEEEC2B8ne180100ERNS_13basic_ostreamIcS2_EE, symObjAddr: 0xB1C0, symBinAddr: 0x10000C030, symSize: 0x50 }
  - { offset: 0x26F73, size: 0x8, addend: 0x0, symName: __ZNKSt3__19basic_iosIcNS_11char_traitsIcEEE5widenB8ne180100Ec, symObjAddr: 0xB210, symBinAddr: 0x10000C080, symSize: 0x80 }
  - { offset: 0x26FE5, size: 0x8, addend: 0x0, symName: __ZNKSt3__15ctypeIcE5widenB8ne180100Ec, symObjAddr: 0xB2C0, symBinAddr: 0x10000C130, symSize: 0x30 }
  - { offset: 0x2701A, size: 0x8, addend: 0x0, symName: __ZNSt3__16vectorIjNS_9allocatorIjEEEC2EmRKj, symObjAddr: 0xB2F0, symBinAddr: 0x10000C160, symSize: 0xE0 }
  - { offset: 0x27079, size: 0x8, addend: 0x0, symName: __ZNSt3__117__compressed_pairIPjNS_9allocatorIjEEEC1B8ne180100IDnNS_18__default_init_tagEEEOT_OT0_, symObjAddr: 0xB3D0, symBinAddr: 0x10000C240, symSize: 0x30 }
  - { offset: 0x270D1, size: 0x8, addend: 0x0, symName: __ZNSt3__16vectorIjNS_9allocatorIjEEE16__destroy_vectorC1B8ne180100ERS3_, symObjAddr: 0xB440, symBinAddr: 0x10000C2B0, symSize: 0x30 }
  - { offset: 0x2710A, size: 0x8, addend: 0x0, symName: __ZNSt3__16vectorIjNS_9allocatorIjEEE11__vallocateB8ne180100Em, symObjAddr: 0xB470, symBinAddr: 0x10000C2E0, symSize: 0xA0 }
  - { offset: 0x2714E, size: 0x8, addend: 0x0, symName: __ZNSt3__16vectorIjNS_9allocatorIjEEE18__construct_at_endEmRKj, symObjAddr: 0xB510, symBinAddr: 0x10000C380, symSize: 0xC0 }
  - { offset: 0x271CF, size: 0x8, addend: 0x0, symName: __ZNSt3__128__exception_guard_exceptionsINS_6vectorIjNS_9allocatorIjEEE16__destroy_vectorEE10__completeB8ne180100Ev, symObjAddr: 0xB5D0, symBinAddr: 0x10000C440, symSize: 0x20 }
  - { offset: 0x271F5, size: 0x8, addend: 0x0, symName: __ZNSt3__128__exception_guard_exceptionsINS_6vectorIjNS_9allocatorIjEEE16__destroy_vectorEED1B8ne180100Ev, symObjAddr: 0xB5F0, symBinAddr: 0x10000C460, symSize: 0x20 }
  - { offset: 0x2721F, size: 0x8, addend: 0x0, symName: __ZNSt3__117__compressed_pairIPjNS_9allocatorIjEEEC2B8ne180100IDnNS_18__default_init_tagEEEOT_OT0_, symObjAddr: 0xB610, symBinAddr: 0x10000C480, symSize: 0x40 }
  - { offset: 0x27277, size: 0x8, addend: 0x0, symName: __ZNSt3__122__compressed_pair_elemIPjLi0ELb0EEC2B8ne180100IDnvEEOT_, symObjAddr: 0xB650, symBinAddr: 0x10000C4C0, symSize: 0x20 }
  - { offset: 0x272B9, size: 0x8, addend: 0x0, symName: __ZNSt3__122__compressed_pair_elemINS_9allocatorIjEELi1ELb1EEC2B8ne180100ENS_18__default_init_tagE, symObjAddr: 0xB670, symBinAddr: 0x10000C4E0, symSize: 0x20 }
  - { offset: 0x272ED, size: 0x8, addend: 0x0, symName: __ZNSt3__19allocatorIjEC2B8ne180100Ev, symObjAddr: 0xB690, symBinAddr: 0x10000C500, symSize: 0x20 }
  - { offset: 0x27317, size: 0x8, addend: 0x0, symName: __ZNSt3__116__non_trivial_ifILb1ENS_9allocatorIjEEEC2B8ne180100Ev, symObjAddr: 0xB6B0, symBinAddr: 0x10000C520, symSize: 0x10 }
  - { offset: 0x27341, size: 0x8, addend: 0x0, symName: __ZNSt3__128__exception_guard_exceptionsINS_6vectorIjNS_9allocatorIjEEE16__destroy_vectorEEC1B8ne180100ES5_, symObjAddr: 0xB6C0, symBinAddr: 0x10000C530, symSize: 0x30 }
  - { offset: 0x27379, size: 0x8, addend: 0x0, symName: __ZNSt3__128__exception_guard_exceptionsINS_6vectorIjNS_9allocatorIjEEE16__destroy_vectorEEC2B8ne180100ES5_, symObjAddr: 0xB6F0, symBinAddr: 0x10000C560, symSize: 0x20 }
  - { offset: 0x273B1, size: 0x8, addend: 0x0, symName: __ZNSt3__16vectorIjNS_9allocatorIjEEE16__destroy_vectorC2B8ne180100ERS3_, symObjAddr: 0xB710, symBinAddr: 0x10000C580, symSize: 0x20 }
  - { offset: 0x273EA, size: 0x8, addend: 0x0, symName: __ZNKSt3__16vectorIjNS_9allocatorIjEEE8max_sizeEv, symObjAddr: 0xB730, symBinAddr: 0x10000C5A0, symSize: 0x60 }
  - { offset: 0x27412, size: 0x8, addend: 0x0, symName: __ZNKSt3__16vectorIjNS_9allocatorIjEEE20__throw_length_errorB8ne180100Ev, symObjAddr: 0xB790, symBinAddr: 0x10000C600, symSize: 0x20 }
  - { offset: 0x27438, size: 0x8, addend: 0x0, symName: __ZNSt3__16vectorIjNS_9allocatorIjEEE7__allocB8ne180100Ev, symObjAddr: 0xB7F0, symBinAddr: 0x10000C660, symSize: 0x20 }
  - { offset: 0x2745E, size: 0x8, addend: 0x0, symName: __ZNSt3__16vectorIjNS_9allocatorIjEEE9__end_capB8ne180100Ev, symObjAddr: 0xB810, symBinAddr: 0x10000C680, symSize: 0x20 }
  - { offset: 0x27484, size: 0x8, addend: 0x0, symName: __ZNKSt3__16vectorIjNS_9allocatorIjEEE14__annotate_newB8ne180100Em, symObjAddr: 0xB830, symBinAddr: 0x10000C6A0, symSize: 0x10 }
  - { offset: 0x274C4, size: 0x8, addend: 0x0, symName: __ZNSt3__116allocator_traitsINS_9allocatorIjEEE8max_sizeB8ne180100IS2_vEEmRKS2_, symObjAddr: 0xB840, symBinAddr: 0x10000C6B0, symSize: 0x20 }
  - { offset: 0x274F2, size: 0x8, addend: 0x0, symName: __ZNKSt3__16vectorIjNS_9allocatorIjEEE7__allocB8ne180100Ev, symObjAddr: 0xB860, symBinAddr: 0x10000C6D0, symSize: 0x20 }
  - { offset: 0x27518, size: 0x8, addend: 0x0, symName: __ZNKSt3__19allocatorIjE8max_sizeB8ne180100Ev, symObjAddr: 0xB880, symBinAddr: 0x10000C6F0, symSize: 0x20 }
  - { offset: 0x2753E, size: 0x8, addend: 0x0, symName: __ZNKSt3__117__compressed_pairIPjNS_9allocatorIjEEE6secondB8ne180100Ev, symObjAddr: 0xB8A0, symBinAddr: 0x10000C710, symSize: 0x20 }
  - { offset: 0x27564, size: 0x8, addend: 0x0, symName: __ZNKSt3__122__compressed_pair_elemINS_9allocatorIjEELi1ELb1EE5__getB8ne180100Ev, symObjAddr: 0xB8C0, symBinAddr: 0x10000C730, symSize: 0x10 }
  - { offset: 0x2758A, size: 0x8, addend: 0x0, symName: __ZNSt3__19allocatorIjE8allocateB8ne180100Em, symObjAddr: 0xB8D0, symBinAddr: 0x10000C740, symSize: 0x50 }
  - { offset: 0x275BE, size: 0x8, addend: 0x0, symName: __ZNSt3__117__compressed_pairIPjNS_9allocatorIjEEE6secondB8ne180100Ev, symObjAddr: 0xB920, symBinAddr: 0x10000C790, symSize: 0x20 }
  - { offset: 0x275E4, size: 0x8, addend: 0x0, symName: __ZNSt3__122__compressed_pair_elemINS_9allocatorIjEELi1ELb1EE5__getB8ne180100Ev, symObjAddr: 0xB940, symBinAddr: 0x10000C7B0, symSize: 0x10 }
  - { offset: 0x2760A, size: 0x8, addend: 0x0, symName: __ZNSt3__117__compressed_pairIPjNS_9allocatorIjEEE5firstB8ne180100Ev, symObjAddr: 0xB950, symBinAddr: 0x10000C7C0, symSize: 0x20 }
  - { offset: 0x27630, size: 0x8, addend: 0x0, symName: __ZNSt3__122__compressed_pair_elemIPjLi0ELb0EE5__getB8ne180100Ev, symObjAddr: 0xB970, symBinAddr: 0x10000C7E0, symSize: 0x10 }
  - { offset: 0x27671, size: 0x8, addend: 0x0, symName: __ZNSt3__16vectorIjNS_9allocatorIjEEE21_ConstructTransactionC1B8ne180100ERS3_m, symObjAddr: 0xB980, symBinAddr: 0x10000C7F0, symSize: 0x30 }
  - { offset: 0x276B9, size: 0x8, addend: 0x0, symName: __ZNSt3__116allocator_traitsINS_9allocatorIjEEE9constructB8ne180100IjJRKjEvEEvRS2_PT_DpOT0_, symObjAddr: 0xB9B0, symBinAddr: 0x10000C820, symSize: 0x30 }
  - { offset: 0x27710, size: 0x8, addend: 0x0, symName: __ZNSt3__16vectorIjNS_9allocatorIjEEE21_ConstructTransactionD1B8ne180100Ev, symObjAddr: 0xB9F0, symBinAddr: 0x10000C860, symSize: 0x20 }
  - { offset: 0x2773A, size: 0x8, addend: 0x0, symName: __ZNSt3__16vectorIjNS_9allocatorIjEEE21_ConstructTransactionC2B8ne180100ERS3_m, symObjAddr: 0xBA10, symBinAddr: 0x10000C880, symSize: 0x40 }
  - { offset: 0x27782, size: 0x8, addend: 0x0, symName: __ZNSt3__19allocatorIjE9constructB8ne180100IjJRKjEEEvPT_DpOT0_, symObjAddr: 0xBA50, symBinAddr: 0x10000C8C0, symSize: 0x20 }
  - { offset: 0x277D8, size: 0x8, addend: 0x0, symName: __ZNSt3__16vectorIjNS_9allocatorIjEEE21_ConstructTransactionD2B8ne180100Ev, symObjAddr: 0xBA70, symBinAddr: 0x10000C8E0, symSize: 0x20 }
  - { offset: 0x27802, size: 0x8, addend: 0x0, symName: __ZNSt3__128__exception_guard_exceptionsINS_6vectorIjNS_9allocatorIjEEE16__destroy_vectorEED2B8ne180100Ev, symObjAddr: 0xBA90, symBinAddr: 0x10000C900, symSize: 0x40 }
  - { offset: 0x2782C, size: 0x8, addend: 0x0, symName: __ZNSt3__16vectorIjNS_9allocatorIjEEE16__destroy_vectorclB8ne180100Ev, symObjAddr: 0xBAD0, symBinAddr: 0x10000C940, symSize: 0x80 }
  - { offset: 0x27852, size: 0x8, addend: 0x0, symName: __ZNSt3__16vectorIjNS_9allocatorIjEEE7__clearB8ne180100Ev, symObjAddr: 0xBB50, symBinAddr: 0x10000C9C0, symSize: 0x20 }
  - { offset: 0x27878, size: 0x8, addend: 0x0, symName: __ZNKSt3__16vectorIjNS_9allocatorIjEEE17__annotate_deleteB8ne180100Ev, symObjAddr: 0xBB70, symBinAddr: 0x10000C9E0, symSize: 0x10 }
  - { offset: 0x2789E, size: 0x8, addend: 0x0, symName: __ZNSt3__116allocator_traitsINS_9allocatorIjEEE10deallocateB8ne180100ERS2_Pjm, symObjAddr: 0xBB80, symBinAddr: 0x10000C9F0, symSize: 0x30 }
  - { offset: 0x278E0, size: 0x8, addend: 0x0, symName: __ZNKSt3__16vectorIjNS_9allocatorIjEEE8capacityB8ne180100Ev, symObjAddr: 0xBBB0, symBinAddr: 0x10000CA20, symSize: 0x30 }
  - { offset: 0x27906, size: 0x8, addend: 0x0, symName: __ZNSt3__16vectorIjNS_9allocatorIjEEE22__base_destruct_at_endB8ne180100EPj, symObjAddr: 0xBBE0, symBinAddr: 0x10000CA50, symSize: 0x80 }
  - { offset: 0x2794A, size: 0x8, addend: 0x0, symName: __ZNSt3__116allocator_traitsINS_9allocatorIjEEE7destroyB8ne180100IjvEEvRS2_PT_, symObjAddr: 0xBC60, symBinAddr: 0x10000CAD0, symSize: 0x30 }
  - { offset: 0x27987, size: 0x8, addend: 0x0, symName: __ZNSt3__19allocatorIjE7destroyB8ne180100EPj, symObjAddr: 0xBC90, symBinAddr: 0x10000CB00, symSize: 0x10 }
  - { offset: 0x279BB, size: 0x8, addend: 0x0, symName: __ZNSt3__19allocatorIjE10deallocateB8ne180100EPjm, symObjAddr: 0xBCA0, symBinAddr: 0x10000CB10, symSize: 0x40 }
  - { offset: 0x279FD, size: 0x8, addend: 0x0, symName: __ZNKSt3__16vectorIjNS_9allocatorIjEEE9__end_capB8ne180100Ev, symObjAddr: 0xBCE0, symBinAddr: 0x10000CB50, symSize: 0x20 }
  - { offset: 0x27A23, size: 0x8, addend: 0x0, symName: __ZNKSt3__117__compressed_pairIPjNS_9allocatorIjEEE5firstB8ne180100Ev, symObjAddr: 0xBD00, symBinAddr: 0x10000CB70, symSize: 0x20 }
  - { offset: 0x27A49, size: 0x8, addend: 0x0, symName: __ZNKSt3__122__compressed_pair_elemIPjLi0ELb0EE5__getB8ne180100Ev, symObjAddr: 0xBD20, symBinAddr: 0x10000CB90, symSize: 0x10 }
  - { offset: 0x27A6F, size: 0x8, addend: 0x0, symName: __ZNSt3__16vectorIjNS_9allocatorIjEEED2B8ne180100Ev, symObjAddr: 0xBD30, symBinAddr: 0x10000CBA0, symSize: 0x40 }
  - { offset: 0x27A99, size: 0x8, addend: 0x0, symName: __ZNSt3__13mapIijNS_4lessIiEENS_9allocatorINS_4pairIKijEEEEEC2B8ne180100Ev, symObjAddr: 0xBD70, symBinAddr: 0x10000CBE0, symSize: 0x30 }
  - { offset: 0x27AC3, size: 0x8, addend: 0x0, symName: __ZNSt3__119__map_value_compareIiNS_12__value_typeIijEENS_4lessIiEELb1EEC1B8ne180100ES4_, symObjAddr: 0xBDA0, symBinAddr: 0x10000CC10, symSize: 0x20 }
  - { offset: 0x27AFC, size: 0x8, addend: 0x0, symName: __ZNSt3__16__treeINS_12__value_typeIijEENS_19__map_value_compareIiS2_NS_4lessIiEELb1EEENS_9allocatorIS2_EEEC1ERKS6_, symObjAddr: 0xBDC0, symBinAddr: 0x10000CC30, symSize: 0x30 }
  - { offset: 0x27B37, size: 0x8, addend: 0x0, symName: __ZNSt3__119__map_value_compareIiNS_12__value_typeIijEENS_4lessIiEELb1EEC2B8ne180100ES4_, symObjAddr: 0xBDF0, symBinAddr: 0x10000CC60, symSize: 0x10 }
  - { offset: 0x27B70, size: 0x8, addend: 0x0, symName: __ZNSt3__16__treeINS_12__value_typeIijEENS_19__map_value_compareIiS2_NS_4lessIiEELb1EEENS_9allocatorIS2_EEEC2ERKS6_, symObjAddr: 0xBE00, symBinAddr: 0x10000CC70, symSize: 0x80 }
  - { offset: 0x27BAB, size: 0x8, addend: 0x0, symName: __ZNSt3__117__compressed_pairINS_15__tree_end_nodeIPNS_16__tree_node_baseIPvEEEENS_9allocatorINS_11__tree_nodeINS_12__value_typeIijEES3_EEEEEC1B8ne180100ILb1EvEEv, symObjAddr: 0xBE80, symBinAddr: 0x10000CCF0, symSize: 0x20 }
  - { offset: 0x27BE0, size: 0x8, addend: 0x0, symName: __ZNSt3__117__compressed_pairImNS_19__map_value_compareIiNS_12__value_typeIijEENS_4lessIiEELb1EEEEC1B8ne180100IiRKS6_EEOT_OT0_, symObjAddr: 0xBEA0, symBinAddr: 0x10000CD10, symSize: 0x30 }
  - { offset: 0x27C38, size: 0x8, addend: 0x0, symName: __ZNSt3__16__treeINS_12__value_typeIijEENS_19__map_value_compareIiS2_NS_4lessIiEELb1EEENS_9allocatorIS2_EEE10__end_nodeB8ne180100Ev, symObjAddr: 0xBED0, symBinAddr: 0x10000CD40, symSize: 0x30 }
  - { offset: 0x27C5E, size: 0x8, addend: 0x0, symName: __ZNSt3__16__treeINS_12__value_typeIijEENS_19__map_value_compareIiS2_NS_4lessIiEELb1EEENS_9allocatorIS2_EEE12__begin_nodeB8ne180100Ev, symObjAddr: 0xBF00, symBinAddr: 0x10000CD70, symSize: 0x10 }
  - { offset: 0x27C84, size: 0x8, addend: 0x0, symName: __ZNSt3__117__compressed_pairINS_15__tree_end_nodeIPNS_16__tree_node_baseIPvEEEENS_9allocatorINS_11__tree_nodeINS_12__value_typeIijEES3_EEEEEC2B8ne180100ILb1EvEEv, symObjAddr: 0xBF10, symBinAddr: 0x10000CD80, symSize: 0x30 }
  - { offset: 0x27CB9, size: 0x8, addend: 0x0, symName: __ZNSt3__122__compressed_pair_elemINS_9allocatorINS_11__tree_nodeINS_12__value_typeIijEEPvEEEELi1ELb1EEC2B8ne180100ENS_16__value_init_tagE, symObjAddr: 0xBF40, symBinAddr: 0x10000CDB0, symSize: 0x20 }
  - { offset: 0x27CED, size: 0x8, addend: 0x0, symName: __ZNSt3__19allocatorINS_11__tree_nodeINS_12__value_typeIijEEPvEEEC2B8ne180100Ev, symObjAddr: 0xBF60, symBinAddr: 0x10000CDD0, symSize: 0x20 }
  - { offset: 0x27D17, size: 0x8, addend: 0x0, symName: __ZNSt3__116__non_trivial_ifILb1ENS_9allocatorINS_11__tree_nodeINS_12__value_typeIijEEPvEEEEEC2B8ne180100Ev, symObjAddr: 0xBF80, symBinAddr: 0x10000CDF0, symSize: 0x10 }
  - { offset: 0x27D41, size: 0x8, addend: 0x0, symName: __ZNSt3__117__compressed_pairImNS_19__map_value_compareIiNS_12__value_typeIijEENS_4lessIiEELb1EEEEC2B8ne180100IiRKS6_EEOT_OT0_, symObjAddr: 0xBF90, symBinAddr: 0x10000CE00, symSize: 0x40 }
  - { offset: 0x27D99, size: 0x8, addend: 0x0, symName: __ZNSt3__122__compressed_pair_elemINS_19__map_value_compareIiNS_12__value_typeIijEENS_4lessIiEELb1EEELi1ELb1EEC2B8ne180100IRKS6_vEEOT_, symObjAddr: 0xBFD0, symBinAddr: 0x10000CE40, symSize: 0x10 }
  - { offset: 0x27DDB, size: 0x8, addend: 0x0, symName: __ZNSt3__117__compressed_pairINS_15__tree_end_nodeIPNS_16__tree_node_baseIPvEEEENS_9allocatorINS_11__tree_nodeINS_12__value_typeIijEES3_EEEEE5firstB8ne180100Ev, symObjAddr: 0xBFE0, symBinAddr: 0x10000CE50, symSize: 0x20 }
  - { offset: 0x27E01, size: 0x8, addend: 0x0, symName: __ZNSt3__13mapIijNS_4lessIiEENS_9allocatorINS_4pairIKijEEEEED2B8ne180100Ev, symObjAddr: 0xC000, symBinAddr: 0x10000CE70, symSize: 0x20 }
  - { offset: 0x27E2B, size: 0x8, addend: 0x0, symName: __ZNSt3__16__treeINS_12__value_typeIijEENS_19__map_value_compareIiS2_NS_4lessIiEELb1EEENS_9allocatorIS2_EEED1Ev, symObjAddr: 0xC020, symBinAddr: 0x10000CE90, symSize: 0x20 }
  - { offset: 0x27E57, size: 0x8, addend: 0x0, symName: __ZNSt3__16__treeINS_12__value_typeIijEENS_19__map_value_compareIiS2_NS_4lessIiEELb1EEENS_9allocatorIS2_EEED2Ev, symObjAddr: 0xC040, symBinAddr: 0x10000CEB0, symSize: 0x30 }
  - { offset: 0x27E83, size: 0x8, addend: 0x0, symName: __ZNSt3__16__treeINS_12__value_typeIijEENS_19__map_value_compareIiS2_NS_4lessIiEELb1EEENS_9allocatorIS2_EEE7destroyEPNS_11__tree_nodeIS2_PvEE, symObjAddr: 0xC070, symBinAddr: 0x10000CEE0, symSize: 0xB0 }
  - { offset: 0x27ECF, size: 0x8, addend: 0x0, symName: __ZNKSt3__16__treeINS_12__value_typeIijEENS_19__map_value_compareIiS2_NS_4lessIiEELb1EEENS_9allocatorIS2_EEE6__rootB8ne180100Ev, symObjAddr: 0xC120, symBinAddr: 0x10000CF90, symSize: 0x20 }
  - { offset: 0x27EF5, size: 0x8, addend: 0x0, symName: __ZNSt3__16__treeINS_12__value_typeIijEENS_19__map_value_compareIiS2_NS_4lessIiEELb1EEENS_9allocatorIS2_EEE12__node_allocB8ne180100Ev, symObjAddr: 0xC140, symBinAddr: 0x10000CFB0, symSize: 0x20 }
  - { offset: 0x27F1B, size: 0x8, addend: 0x0, symName: __ZNSt3__116allocator_traitsINS_9allocatorINS_11__tree_nodeINS_12__value_typeIijEEPvEEEEE7destroyB8ne180100INS_4pairIKijEEvvEEvRS7_PT_, symObjAddr: 0xC160, symBinAddr: 0x10000CFD0, symSize: 0x20 }
  - { offset: 0x27F55, size: 0x8, addend: 0x0, symName: __ZNSt3__122__tree_key_value_typesINS_12__value_typeIijEEE9__get_ptrB8ne180100ERS2_, symObjAddr: 0xC180, symBinAddr: 0x10000CFF0, symSize: 0x20 }
  - { offset: 0x27F79, size: 0x8, addend: 0x0, symName: __ZNSt3__116allocator_traitsINS_9allocatorINS_11__tree_nodeINS_12__value_typeIijEEPvEEEEE10deallocateB8ne180100ERS7_PS6_m, symObjAddr: 0xC1A0, symBinAddr: 0x10000D010, symSize: 0x30 }
  - { offset: 0x27FBB, size: 0x8, addend: 0x0, symName: __ZNSt3__117__compressed_pairINS_15__tree_end_nodeIPNS_16__tree_node_baseIPvEEEENS_9allocatorINS_11__tree_nodeINS_12__value_typeIijEES3_EEEEE6secondB8ne180100Ev, symObjAddr: 0xC1D0, symBinAddr: 0x10000D040, symSize: 0x20 }
  - { offset: 0x27FE1, size: 0x8, addend: 0x0, symName: __ZNSt3__122__compressed_pair_elemINS_9allocatorINS_11__tree_nodeINS_12__value_typeIijEEPvEEEELi1ELb1EE5__getB8ne180100Ev, symObjAddr: 0xC1F0, symBinAddr: 0x10000D060, symSize: 0x10 }
  - { offset: 0x28007, size: 0x8, addend: 0x0, symName: __ZNSt3__112__value_typeIijE11__get_valueB8ne180100Ev, symObjAddr: 0xC210, symBinAddr: 0x10000D080, symSize: 0x20 }
  - { offset: 0x2802D, size: 0x8, addend: 0x0, symName: __ZNSt3__19allocatorINS_11__tree_nodeINS_12__value_typeIijEEPvEEE10deallocateB8ne180100EPS5_m, symObjAddr: 0xC260, symBinAddr: 0x10000D0D0, symSize: 0x50 }
  - { offset: 0x2806F, size: 0x8, addend: 0x0, symName: __ZNKSt3__16__treeINS_12__value_typeIijEENS_19__map_value_compareIiS2_NS_4lessIiEELb1EEENS_9allocatorIS2_EEE10__end_nodeB8ne180100Ev, symObjAddr: 0xC2B0, symBinAddr: 0x10000D120, symSize: 0x30 }
  - { offset: 0x28095, size: 0x8, addend: 0x0, symName: __ZNKSt3__117__compressed_pairINS_15__tree_end_nodeIPNS_16__tree_node_baseIPvEEEENS_9allocatorINS_11__tree_nodeINS_12__value_typeIijEES3_EEEEE5firstB8ne180100Ev, symObjAddr: 0xC2E0, symBinAddr: 0x10000D150, symSize: 0x20 }
  - { offset: 0x280BB, size: 0x8, addend: 0x0, symName: __ZNSt3__16vectorIbNS_9allocatorIbEEEC2EmRKb, symObjAddr: 0xC300, symBinAddr: 0x10000D170, symSize: 0x80 }
  - { offset: 0x28105, size: 0x8, addend: 0x0, symName: __ZNSt3__117__compressed_pairImNS_9allocatorImEEEC1B8ne180100IiNS_18__default_init_tagEEEOT_OT0_, symObjAddr: 0xC380, symBinAddr: 0x10000D1F0, symSize: 0x30 }
  - { offset: 0x2815D, size: 0x8, addend: 0x0, symName: __ZNSt3__16vectorIbNS_9allocatorIbEEE11__vallocateB8ne180100Em, symObjAddr: 0xC3B0, symBinAddr: 0x10000D220, symSize: 0xA0 }
  - { offset: 0x281A1, size: 0x8, addend: 0x0, symName: __ZNSt3__16vectorIbNS_9allocatorIbEEE18__construct_at_endB8ne180100Emb, symObjAddr: 0xC450, symBinAddr: 0x10000D2C0, symSize: 0xE0 }
  - { offset: 0x281F6, size: 0x8, addend: 0x0, symName: __ZNSt3__117__compressed_pairImNS_9allocatorImEEEC2B8ne180100IiNS_18__default_init_tagEEEOT_OT0_, symObjAddr: 0xC530, symBinAddr: 0x10000D3A0, symSize: 0x40 }
  - { offset: 0x2824E, size: 0x8, addend: 0x0, symName: __ZNSt3__122__compressed_pair_elemINS_9allocatorImEELi1ELb1EEC2B8ne180100ENS_18__default_init_tagE, symObjAddr: 0xC570, symBinAddr: 0x10000D3E0, symSize: 0x20 }
  - { offset: 0x28282, size: 0x8, addend: 0x0, symName: __ZNSt3__19allocatorImEC2B8ne180100Ev, symObjAddr: 0xC590, symBinAddr: 0x10000D400, symSize: 0x20 }
  - { offset: 0x282AC, size: 0x8, addend: 0x0, symName: __ZNSt3__116__non_trivial_ifILb1ENS_9allocatorImEEEC2B8ne180100Ev, symObjAddr: 0xC5B0, symBinAddr: 0x10000D420, symSize: 0x10 }
  - { offset: 0x282D6, size: 0x8, addend: 0x0, symName: __ZNKSt3__16vectorIbNS_9allocatorIbEEE8max_sizeEv, symObjAddr: 0xC5C0, symBinAddr: 0x10000D430, symSize: 0x70 }
  - { offset: 0x2831C, size: 0x8, addend: 0x0, symName: __ZNKSt3__16vectorIbNS_9allocatorIbEEE20__throw_length_errorB8ne180100Ev, symObjAddr: 0xC630, symBinAddr: 0x10000D4A0, symSize: 0x20 }
  - { offset: 0x28342, size: 0x8, addend: 0x0, symName: __ZNSt3__16vectorIbNS_9allocatorIbEEE7__allocB8ne180100Ev, symObjAddr: 0xC690, symBinAddr: 0x10000D500, symSize: 0x20 }
  - { offset: 0x28368, size: 0x8, addend: 0x0, symName: __ZNSt3__16vectorIbNS_9allocatorIbEEE26__external_cap_to_internalB8ne180100Em, symObjAddr: 0xC6B0, symBinAddr: 0x10000D520, symSize: 0x20 }
  - { offset: 0x2838C, size: 0x8, addend: 0x0, symName: __ZNSt3__16vectorIbNS_9allocatorIbEEE5__capB8ne180100Ev, symObjAddr: 0xC6D0, symBinAddr: 0x10000D540, symSize: 0x20 }
  - { offset: 0x283BD, size: 0x8, addend: 0x0, symName: __ZNSt3__116allocator_traitsINS_9allocatorImEEE8max_sizeB8ne180100IS2_vEEmRKS2_, symObjAddr: 0xC6F0, symBinAddr: 0x10000D560, symSize: 0x20 }
  - { offset: 0x283EB, size: 0x8, addend: 0x0, symName: __ZNKSt3__16vectorIbNS_9allocatorIbEEE7__allocB8ne180100Ev, symObjAddr: 0xC710, symBinAddr: 0x10000D580, symSize: 0x20 }
  - { offset: 0x28411, size: 0x8, addend: 0x0, symName: __ZNSt3__16vectorIbNS_9allocatorIbEEE26__internal_cap_to_externalB8ne180100Em, symObjAddr: 0xC730, symBinAddr: 0x10000D5A0, symSize: 0x20 }
  - { offset: 0x28435, size: 0x8, addend: 0x0, symName: __ZNKSt3__19allocatorImE8max_sizeB8ne180100Ev, symObjAddr: 0xC750, symBinAddr: 0x10000D5C0, symSize: 0x20 }
  - { offset: 0x2845B, size: 0x8, addend: 0x0, symName: __ZNKSt3__117__compressed_pairImNS_9allocatorImEEE6secondB8ne180100Ev, symObjAddr: 0xC770, symBinAddr: 0x10000D5E0, symSize: 0x20 }
  - { offset: 0x28481, size: 0x8, addend: 0x0, symName: __ZNKSt3__122__compressed_pair_elemINS_9allocatorImEELi1ELb1EE5__getB8ne180100Ev, symObjAddr: 0xC790, symBinAddr: 0x10000D600, symSize: 0x10 }
  - { offset: 0x284A7, size: 0x8, addend: 0x0, symName: __ZNSt3__19allocatorImE8allocateB8ne180100Em, symObjAddr: 0xC7A0, symBinAddr: 0x10000D610, symSize: 0x50 }
  - { offset: 0x284DB, size: 0x8, addend: 0x0, symName: __ZNSt3__117__compressed_pairImNS_9allocatorImEEE6secondB8ne180100Ev, symObjAddr: 0xC7F0, symBinAddr: 0x10000D660, symSize: 0x20 }
  - { offset: 0x28501, size: 0x8, addend: 0x0, symName: __ZNSt3__122__compressed_pair_elemINS_9allocatorImEELi1ELb1EE5__getB8ne180100Ev, symObjAddr: 0xC810, symBinAddr: 0x10000D680, symSize: 0x10 }
  - { offset: 0x28527, size: 0x8, addend: 0x0, symName: __ZNSt3__117__compressed_pairImNS_9allocatorImEEE5firstB8ne180100Ev, symObjAddr: 0xC820, symBinAddr: 0x10000D690, symSize: 0x20 }
  - { offset: 0x2854D, size: 0x8, addend: 0x0, symName: __ZNSt3__16vectorIbNS_9allocatorIbEEE11__make_iterB8ne180100Em, symObjAddr: 0xC8C0, symBinAddr: 0x10000D730, symSize: 0x50 }
  - { offset: 0x28582, size: 0x8, addend: 0x0, symName: __ZNSt3__114__bit_iteratorINS_6vectorIbNS_9allocatorIbEEEELb0ELm0EEC1B8ne180100ERKS5_, symObjAddr: 0xCA50, symBinAddr: 0x10000D8C0, symSize: 0x30 }
  - { offset: 0x285BB, size: 0x8, addend: 0x0, symName: __ZNSt3__114__bit_iteratorINS_6vectorIbNS_9allocatorIbEEEELb0ELm0EEC2B8ne180100ERKS5_, symObjAddr: 0xCC60, symBinAddr: 0x10000DAD0, symSize: 0x30 }
  - { offset: 0x285F4, size: 0x8, addend: 0x0, symName: __ZNSt3__114__bit_iteratorINS_6vectorIbNS_9allocatorIbEEEELb0ELm0EEC1B8ne180100EPmj, symObjAddr: 0xCC90, symBinAddr: 0x10000DB00, symSize: 0x30 }
  - { offset: 0x2863C, size: 0x8, addend: 0x0, symName: __ZNSt3__114__bit_iteratorINS_6vectorIbNS_9allocatorIbEEEELb0ELm0EEC2B8ne180100EPmj, symObjAddr: 0xCCC0, symBinAddr: 0x10000DB30, symSize: 0x30 }
  - { offset: 0x28684, size: 0x8, addend: 0x0, symName: __ZNSt3__16vectorIbNS_9allocatorIbEEED2B8ne180100Ev, symObjAddr: 0xCCF0, symBinAddr: 0x10000DB60, symSize: 0x40 }
  - { offset: 0x286AE, size: 0x8, addend: 0x0, symName: __ZNSt3__16vectorIbNS_9allocatorIbEEE16__destroy_vectorC1B8ne180100ERS3_, symObjAddr: 0xCD30, symBinAddr: 0x10000DBA0, symSize: 0x30 }
  - { offset: 0x286E7, size: 0x8, addend: 0x0, symName: __ZNSt3__16vectorIbNS_9allocatorIbEEE16__destroy_vectorclB8ne180100Ev, symObjAddr: 0xCD60, symBinAddr: 0x10000DBD0, symSize: 0x60 }
  - { offset: 0x2870D, size: 0x8, addend: 0x0, symName: __ZNSt3__16vectorIbNS_9allocatorIbEEE16__destroy_vectorC2B8ne180100ERS3_, symObjAddr: 0xCDC0, symBinAddr: 0x10000DC30, symSize: 0x20 }
  - { offset: 0x28746, size: 0x8, addend: 0x0, symName: __ZNSt3__116allocator_traitsINS_9allocatorImEEE10deallocateB8ne180100ERS2_Pmm, symObjAddr: 0xCDE0, symBinAddr: 0x10000DC50, symSize: 0x30 }
  - { offset: 0x28788, size: 0x8, addend: 0x0, symName: __ZNSt3__19allocatorImE10deallocateB8ne180100EPmm, symObjAddr: 0xCE10, symBinAddr: 0x10000DC80, symSize: 0x40 }
  - { offset: 0x287CA, size: 0x8, addend: 0x0, symName: __ZNSt3__16vectorIbNS_9allocatorIbEEE10__make_refB8ne180100Em, symObjAddr: 0xCE50, symBinAddr: 0x10000DCC0, symSize: 0x50 }
  - { offset: 0x287FF, size: 0x8, addend: 0x0, symName: __ZNSt3__115__bit_referenceINS_6vectorIbNS_9allocatorIbEEEELb1EEC1B8ne180100EPmm, symObjAddr: 0xCEA0, symBinAddr: 0x10000DD10, symSize: 0x30 }
  - { offset: 0x28845, size: 0x8, addend: 0x0, symName: __ZNSt3__115__bit_referenceINS_6vectorIbNS_9allocatorIbEEEELb1EEC2B8ne180100EPmm, symObjAddr: 0xCED0, symBinAddr: 0x10000DD40, symSize: 0x30 }
  - { offset: 0x2888B, size: 0x8, addend: 0x0, symName: __ZNSt3__16__treeINS_12__value_typeIijEENS_19__map_value_compareIiS2_NS_4lessIiEELb1EEENS_9allocatorIS2_EEE25__emplace_unique_key_argsIiJRKNS_21piecewise_construct_tENS_5tupleIJRKiEEENSE_IJEEEEEENS_4pairINS_15__tree_iteratorIS2_PNS_11__tree_nodeIS2_PvEElEEbEERKT_DpOT0_, symObjAddr: 0xCF00, symBinAddr: 0x10000DD70, symSize: 0x100 }
  - { offset: 0x28968, size: 0x8, addend: 0x0, symName: __ZNKSt3__115__tree_iteratorINS_12__value_typeIijEEPNS_11__tree_nodeIS2_PvEElEptB8ne180100Ev, symObjAddr: 0xD000, symBinAddr: 0x10000DE70, symSize: 0x30 }
  - { offset: 0x2898E, size: 0x8, addend: 0x0, symName: __ZNSt3__16__treeINS_12__value_typeIijEENS_19__map_value_compareIiS2_NS_4lessIiEELb1EEENS_9allocatorIS2_EEE12__find_equalIiEERPNS_16__tree_node_baseIPvEERPNS_15__tree_end_nodeISE_EERKT_, symObjAddr: 0xD030, symBinAddr: 0x10000DEA0, symSize: 0x180 }
  - { offset: 0x289F9, size: 0x8, addend: 0x0, symName: __ZNSt3__16__treeINS_12__value_typeIijEENS_19__map_value_compareIiS2_NS_4lessIiEELb1EEENS_9allocatorIS2_EEE16__construct_nodeIJRKNS_21piecewise_construct_tENS_5tupleIJRKiEEENSE_IJEEEEEENS_10unique_ptrINS_11__tree_nodeIS2_PvEENS_22__tree_node_destructorINS7_ISM_EEEEEEDpOT_, symObjAddr: 0xD1B0, symBinAddr: 0x10000E020, symSize: 0x120 }
  - { offset: 0x28A80, size: 0x8, addend: 0x0, symName: __ZNSt3__16__treeINS_12__value_typeIijEENS_19__map_value_compareIiS2_NS_4lessIiEELb1EEENS_9allocatorIS2_EEE16__insert_node_atEPNS_15__tree_end_nodeIPNS_16__tree_node_baseIPvEEEERSE_SE_, symObjAddr: 0xD2D0, symBinAddr: 0x10000E140, symSize: 0xC0 }
  - { offset: 0x28AD5, size: 0x8, addend: 0x0, symName: __ZNKSt3__110unique_ptrINS_11__tree_nodeINS_12__value_typeIijEEPvEENS_22__tree_node_destructorINS_9allocatorIS5_EEEEE3getB8ne180100Ev, symObjAddr: 0xD390, symBinAddr: 0x10000E200, symSize: 0x20 }
  - { offset: 0x28AFB, size: 0x8, addend: 0x0, symName: __ZNSt3__110unique_ptrINS_11__tree_nodeINS_12__value_typeIijEEPvEENS_22__tree_node_destructorINS_9allocatorIS5_EEEEE7releaseB8ne180100Ev, symObjAddr: 0xD3B0, symBinAddr: 0x10000E220, symSize: 0x40 }
  - { offset: 0x28B30, size: 0x8, addend: 0x0, symName: __ZNSt3__110unique_ptrINS_11__tree_nodeINS_12__value_typeIijEEPvEENS_22__tree_node_destructorINS_9allocatorIS5_EEEEED1B8ne180100Ev, symObjAddr: 0xD3F0, symBinAddr: 0x10000E260, symSize: 0x20 }
  - { offset: 0x28B5A, size: 0x8, addend: 0x0, symName: __ZNSt3__115__tree_iteratorINS_12__value_typeIijEEPNS_11__tree_nodeIS2_PvEElEC1B8ne180100ES6_, symObjAddr: 0xD410, symBinAddr: 0x10000E280, symSize: 0x30 }
  - { offset: 0x28B99, size: 0x8, addend: 0x0, symName: __ZNSt3__14pairINS_15__tree_iteratorINS_12__value_typeIijEEPNS_11__tree_nodeIS3_PvEElEEbEC1B8ne180100IS8_RbTnNS_9enable_ifIXclsr10_CheckArgsE17__enable_implicitIT_T0_EEEiE4typeELi0EEEOSD_OSE_, symObjAddr: 0xD440, symBinAddr: 0x10000E2B0, symSize: 0x30 }
  - { offset: 0x28BF7, size: 0x8, addend: 0x0, symName: __ZNKSt3__16__treeINS_12__value_typeIijEENS_19__map_value_compareIiS2_NS_4lessIiEELb1EEENS_9allocatorIS2_EEE10__root_ptrB8ne180100Ev, symObjAddr: 0xD470, symBinAddr: 0x10000E2E0, symSize: 0x20 }
  - { offset: 0x28C1D, size: 0x8, addend: 0x0, symName: __ZNSt3__16__treeINS_12__value_typeIijEENS_19__map_value_compareIiS2_NS_4lessIiEELb1EEENS_9allocatorIS2_EEE10value_compB8ne180100Ev, symObjAddr: 0xD490, symBinAddr: 0x10000E300, symSize: 0x20 }
  - { offset: 0x28C43, size: 0x8, addend: 0x0, symName: __ZNKSt3__119__map_value_compareIiNS_12__value_typeIijEENS_4lessIiEELb1EEclB8ne180100ERKiRKS2_, symObjAddr: 0xD4B0, symBinAddr: 0x10000E320, symSize: 0x50 }
  - { offset: 0x28C87, size: 0x8, addend: 0x0, symName: __ZNKSt3__119__map_value_compareIiNS_12__value_typeIijEENS_4lessIiEELb1EEclB8ne180100ERKS2_RKi, symObjAddr: 0xD500, symBinAddr: 0x10000E370, symSize: 0x40 }
  - { offset: 0x28CCB, size: 0x8, addend: 0x0, symName: __ZNSt3__117__compressed_pairImNS_19__map_value_compareIiNS_12__value_typeIijEENS_4lessIiEELb1EEEE6secondB8ne180100Ev, symObjAddr: 0xD540, symBinAddr: 0x10000E3B0, symSize: 0x20 }
  - { offset: 0x28CF1, size: 0x8, addend: 0x0, symName: __ZNSt3__122__compressed_pair_elemINS_19__map_value_compareIiNS_12__value_typeIijEENS_4lessIiEELb1EEELi1ELb1EE5__getB8ne180100Ev, symObjAddr: 0xD560, symBinAddr: 0x10000E3D0, symSize: 0x10 }
  - { offset: 0x28D17, size: 0x8, addend: 0x0, symName: __ZNKSt3__112__value_typeIijE11__get_valueB8ne180100Ev, symObjAddr: 0xD570, symBinAddr: 0x10000E3E0, symSize: 0x20 }
  - { offset: 0x28D3D, size: 0x8, addend: 0x0, symName: __ZNSt3__116allocator_traitsINS_9allocatorINS_11__tree_nodeINS_12__value_typeIijEEPvEEEEE8allocateB8ne180100ERS7_m, symObjAddr: 0xD5C0, symBinAddr: 0x10000E430, symSize: 0x30 }
  - { offset: 0x28D70, size: 0x8, addend: 0x0, symName: __ZNSt3__122__tree_node_destructorINS_9allocatorINS_11__tree_nodeINS_12__value_typeIijEEPvEEEEEC1B8ne180100ERS7_b, symObjAddr: 0xD5F0, symBinAddr: 0x10000E460, symSize: 0x40 }
  - { offset: 0x28DBE, size: 0x8, addend: 0x0, symName: __ZNSt3__110unique_ptrINS_11__tree_nodeINS_12__value_typeIijEEPvEENS_22__tree_node_destructorINS_9allocatorIS5_EEEEEC1B8ne180100ILb1EvEEPS5_NS_16__dependent_typeINS_27__unique_ptr_deleter_sfinaeIS9_EEXT_EE20__good_rval_ref_typeE, symObjAddr: 0xD630, symBinAddr: 0x10000E4A0, symSize: 0x30 }
  - { offset: 0x28E0F, size: 0x8, addend: 0x0, symName: __ZNSt3__116allocator_traitsINS_9allocatorINS_11__tree_nodeINS_12__value_typeIijEEPvEEEEE9constructB8ne180100INS_4pairIKijEEJRKNS_21piecewise_construct_tENS_5tupleIJRSB_EEENSG_IJEEEEvEEvRS7_PT_DpOT0_, symObjAddr: 0xD660, symBinAddr: 0x10000E4D0, symSize: 0x40 }
  - { offset: 0x28E8E, size: 0x8, addend: 0x0, symName: __ZNKSt3__110unique_ptrINS_11__tree_nodeINS_12__value_typeIijEEPvEENS_22__tree_node_destructorINS_9allocatorIS5_EEEEEptB8ne180100Ev, symObjAddr: 0xD6A0, symBinAddr: 0x10000E510, symSize: 0x20 }
  - { offset: 0x28EB4, size: 0x8, addend: 0x0, symName: __ZNSt3__110unique_ptrINS_11__tree_nodeINS_12__value_typeIijEEPvEENS_22__tree_node_destructorINS_9allocatorIS5_EEEEE11get_deleterB8ne180100Ev, symObjAddr: 0xD6C0, symBinAddr: 0x10000E530, symSize: 0x20 }
  - { offset: 0x28EDA, size: 0x8, addend: 0x0, symName: __ZNSt3__19allocatorINS_11__tree_nodeINS_12__value_typeIijEEPvEEE8allocateB8ne180100Em, symObjAddr: 0xD6E0, symBinAddr: 0x10000E550, symSize: 0x50 }
  - { offset: 0x28F19, size: 0x8, addend: 0x0, symName: __ZNSt3__116allocator_traitsINS_9allocatorINS_11__tree_nodeINS_12__value_typeIijEEPvEEEEE8max_sizeB8ne180100IS7_vEEmRKS7_, symObjAddr: 0xD730, symBinAddr: 0x10000E5A0, symSize: 0x20 }
  - { offset: 0x28F47, size: 0x8, addend: 0x0, symName: __ZNKSt3__19allocatorINS_11__tree_nodeINS_12__value_typeIijEEPvEEE8max_sizeB8ne180100Ev, symObjAddr: 0xD750, symBinAddr: 0x10000E5C0, symSize: 0x20 }
  - { offset: 0x28F6D, size: 0x8, addend: 0x0, symName: __ZNSt3__122__tree_node_destructorINS_9allocatorINS_11__tree_nodeINS_12__value_typeIijEEPvEEEEEC2B8ne180100ERS7_b, symObjAddr: 0xD770, symBinAddr: 0x10000E5E0, symSize: 0x30 }
  - { offset: 0x28FB5, size: 0x8, addend: 0x0, symName: __ZNSt3__110unique_ptrINS_11__tree_nodeINS_12__value_typeIijEEPvEENS_22__tree_node_destructorINS_9allocatorIS5_EEEEEC2B8ne180100ILb1EvEEPS5_NS_16__dependent_typeINS_27__unique_ptr_deleter_sfinaeIS9_EEXT_EE20__good_rval_ref_typeE, symObjAddr: 0xD7A0, symBinAddr: 0x10000E610, symSize: 0x40 }
  - { offset: 0x29006, size: 0x8, addend: 0x0, symName: __ZNSt3__117__compressed_pairIPNS_11__tree_nodeINS_12__value_typeIijEEPvEENS_22__tree_node_destructorINS_9allocatorIS5_EEEEEC1B8ne180100IRS6_SA_EEOT_OT0_, symObjAddr: 0xD7E0, symBinAddr: 0x10000E650, symSize: 0x30 }
  - { offset: 0x2905E, size: 0x8, addend: 0x0, symName: __ZNSt3__117__compressed_pairIPNS_11__tree_nodeINS_12__value_typeIijEEPvEENS_22__tree_node_destructorINS_9allocatorIS5_EEEEEC2B8ne180100IRS6_SA_EEOT_OT0_, symObjAddr: 0xD810, symBinAddr: 0x10000E680, symSize: 0x40 }
  - { offset: 0x290B6, size: 0x8, addend: 0x0, symName: __ZNSt3__122__compressed_pair_elemIPNS_11__tree_nodeINS_12__value_typeIijEEPvEELi0ELb0EEC2B8ne180100IRS6_vEEOT_, symObjAddr: 0xD850, symBinAddr: 0x10000E6C0, symSize: 0x20 }
  - { offset: 0x290F8, size: 0x8, addend: 0x0, symName: __ZNSt3__122__compressed_pair_elemINS_22__tree_node_destructorINS_9allocatorINS_11__tree_nodeINS_12__value_typeIijEEPvEEEEEELi1ELb0EEC2B8ne180100IS9_vEEOT_, symObjAddr: 0xD870, symBinAddr: 0x10000E6E0, symSize: 0x30 }
  - { offset: 0x2913A, size: 0x8, addend: 0x0, symName: __ZNSt3__19allocatorINS_11__tree_nodeINS_12__value_typeIijEEPvEEE9constructB8ne180100INS_4pairIKijEEJRKNS_21piecewise_construct_tENS_5tupleIJRS9_EEENSE_IJEEEEEEvPT_DpOT0_, symObjAddr: 0xD8A0, symBinAddr: 0x10000E710, symSize: 0x40 }
  - { offset: 0x291B6, size: 0x8, addend: 0x0, symName: __ZNSt3__14pairIKijEC1B8ne180100IJRS1_EJEEENS_21piecewise_construct_tENS_5tupleIJDpT_EEENS6_IJDpT0_EEE, symObjAddr: 0xD8E0, symBinAddr: 0x10000E750, symSize: 0x40 }
  - { offset: 0x2921D, size: 0x8, addend: 0x0, symName: __ZNSt3__14pairIKijEC1B8ne180100IJRS1_EJEJLm0EETpTnmJEEENS_21piecewise_construct_tERNS_5tupleIJDpT_EEERNS6_IJDpT0_EEENS_15__tuple_indicesIJXspT1_EEEENSF_IJXspT2_EEEE, symObjAddr: 0xD920, symBinAddr: 0x10000E790, symSize: 0x30 }
  - { offset: 0x292A7, size: 0x8, addend: 0x0, symName: __ZNSt3__14pairIKijEC2B8ne180100IJRS1_EJEJLm0EETpTnmJEEENS_21piecewise_construct_tERNS_5tupleIJDpT_EEERNS6_IJDpT0_EEENS_15__tuple_indicesIJXspT1_EEEENSF_IJXspT2_EEEE, symObjAddr: 0xD950, symBinAddr: 0x10000E7C0, symSize: 0x40 }
  - { offset: 0x29331, size: 0x8, addend: 0x0, symName: __ZNKSt3__117__compressed_pairIPNS_11__tree_nodeINS_12__value_typeIijEEPvEENS_22__tree_node_destructorINS_9allocatorIS5_EEEEE5firstB8ne180100Ev, symObjAddr: 0xD990, symBinAddr: 0x10000E800, symSize: 0x20 }
  - { offset: 0x29357, size: 0x8, addend: 0x0, symName: __ZNKSt3__122__compressed_pair_elemIPNS_11__tree_nodeINS_12__value_typeIijEEPvEELi0ELb0EE5__getB8ne180100Ev, symObjAddr: 0xD9B0, symBinAddr: 0x10000E820, symSize: 0x10 }
  - { offset: 0x2937D, size: 0x8, addend: 0x0, symName: __ZNSt3__117__compressed_pairIPNS_11__tree_nodeINS_12__value_typeIijEEPvEENS_22__tree_node_destructorINS_9allocatorIS5_EEEEE6secondB8ne180100Ev, symObjAddr: 0xD9C0, symBinAddr: 0x10000E830, symSize: 0x20 }
  - { offset: 0x293A3, size: 0x8, addend: 0x0, symName: __ZNSt3__122__compressed_pair_elemINS_22__tree_node_destructorINS_9allocatorINS_11__tree_nodeINS_12__value_typeIijEEPvEEEEEELi1ELb0EE5__getB8ne180100Ev, symObjAddr: 0xD9E0, symBinAddr: 0x10000E850, symSize: 0x10 }
  - { offset: 0x293C9, size: 0x8, addend: 0x0, symName: __ZNSt3__16__treeINS_12__value_typeIijEENS_19__map_value_compareIiS2_NS_4lessIiEELb1EEENS_9allocatorIS2_EEE4sizeB8ne180100Ev, symObjAddr: 0xD9F0, symBinAddr: 0x10000E860, symSize: 0x20 }
  - { offset: 0x293EF, size: 0x8, addend: 0x0, symName: __ZNSt3__117__compressed_pairImNS_19__map_value_compareIiNS_12__value_typeIijEENS_4lessIiEELb1EEEE5firstB8ne180100Ev, symObjAddr: 0xDA10, symBinAddr: 0x10000E880, symSize: 0x20 }
  - { offset: 0x29415, size: 0x8, addend: 0x0, symName: __ZNSt3__117__compressed_pairIPNS_11__tree_nodeINS_12__value_typeIijEEPvEENS_22__tree_node_destructorINS_9allocatorIS5_EEEEE5firstB8ne180100Ev, symObjAddr: 0xDA30, symBinAddr: 0x10000E8A0, symSize: 0x20 }
  - { offset: 0x2943B, size: 0x8, addend: 0x0, symName: __ZNSt3__122__compressed_pair_elemIPNS_11__tree_nodeINS_12__value_typeIijEEPvEELi0ELb0EE5__getB8ne180100Ev, symObjAddr: 0xDA50, symBinAddr: 0x10000E8C0, symSize: 0x10 }
  - { offset: 0x29461, size: 0x8, addend: 0x0, symName: __ZNSt3__110unique_ptrINS_11__tree_nodeINS_12__value_typeIijEEPvEENS_22__tree_node_destructorINS_9allocatorIS5_EEEEED2B8ne180100Ev, symObjAddr: 0xDA60, symBinAddr: 0x10000E8D0, symSize: 0x20 }
  - { offset: 0x2948B, size: 0x8, addend: 0x0, symName: __ZNSt3__110unique_ptrINS_11__tree_nodeINS_12__value_typeIijEEPvEENS_22__tree_node_destructorINS_9allocatorIS5_EEEEE5resetB8ne180100EPS5_, symObjAddr: 0xDA80, symBinAddr: 0x10000E8F0, symSize: 0x70 }
  - { offset: 0x294CF, size: 0x8, addend: 0x0, symName: __ZNSt3__122__tree_node_destructorINS_9allocatorINS_11__tree_nodeINS_12__value_typeIijEEPvEEEEEclB8ne180100EPS6_, symObjAddr: 0xDAF0, symBinAddr: 0x10000E960, symSize: 0x90 }
  - { offset: 0x29504, size: 0x8, addend: 0x0, symName: __ZNSt3__115__tree_iteratorINS_12__value_typeIijEEPNS_11__tree_nodeIS2_PvEElEC2B8ne180100ES6_, symObjAddr: 0xDB80, symBinAddr: 0x10000E9F0, symSize: 0x20 }
  - { offset: 0x2953D, size: 0x8, addend: 0x0, symName: __ZNSt3__14pairINS_15__tree_iteratorINS_12__value_typeIijEEPNS_11__tree_nodeIS3_PvEElEEbEC2B8ne180100IS8_RbTnNS_9enable_ifIXclsr10_CheckArgsE17__enable_implicitIT_T0_EEEiE4typeELi0EEEOSD_OSE_, symObjAddr: 0xDBA0, symBinAddr: 0x10000EA10, symSize: 0x30 }
  - { offset: 0x2959B, size: 0x8, addend: 0x0, symName: __ZNSt3__114pointer_traitsIPNS_12__value_typeIijEEE10pointer_toB8ne180100ERS2_, symObjAddr: 0xDBD0, symBinAddr: 0x10000EA40, symSize: 0x10 }
  - { offset: 0x295BE, size: 0x8, addend: 0x0, symName: __ZNKSt3__115__tree_iteratorINS_12__value_typeIijEEPNS_11__tree_nodeIS2_PvEElE8__get_npB8ne180100Ev, symObjAddr: 0xDBE0, symBinAddr: 0x10000EA50, symSize: 0x20 }
  - { offset: 0x295E4, size: 0x8, addend: 0x0, symName: __ZNSt3__16vectorIiNS_9allocatorIiEEE22__construct_one_at_endB8ne180100IJRKiEEEvDpOT_, symObjAddr: 0xDC00, symBinAddr: 0x10000EA70, symSize: 0x90 }
  - { offset: 0x29633, size: 0x8, addend: 0x0, symName: __ZNSt3__16vectorIiNS_9allocatorIiEEE21__push_back_slow_pathIRKiEEPiOT_, symObjAddr: 0xDC90, symBinAddr: 0x10000EB00, symSize: 0xE0 }
  - { offset: 0x2968F, size: 0x8, addend: 0x0, symName: __ZNSt3__116allocator_traitsINS_9allocatorIiEEE9constructB8ne180100IiJRKiEvEEvRS2_PT_DpOT0_, symObjAddr: 0xDD70, symBinAddr: 0x10000EBE0, symSize: 0x30 }
  - { offset: 0x296E6, size: 0x8, addend: 0x0, symName: __ZNSt3__19allocatorIiE9constructB8ne180100IiJRKiEEEvPT_DpOT0_, symObjAddr: 0xDDA0, symBinAddr: 0x10000EC10, symSize: 0x20 }
  - { offset: 0x2973C, size: 0x8, addend: 0x0, symName: __ZNSt3__16__treeINS_12__value_typeIijEENS_19__map_value_compareIiS2_NS_4lessIiEELb1EEENS_9allocatorIS2_EEE4findIiEENS_15__tree_iteratorIS2_PNS_11__tree_nodeIS2_PvEElEERKT_, symObjAddr: 0xDDC0, symBinAddr: 0x10000EC30, symSize: 0xE0 }
  - { offset: 0x29789, size: 0x8, addend: 0x0, symName: __ZNSt3__114__map_iteratorINS_15__tree_iteratorINS_12__value_typeIijEEPNS_11__tree_nodeIS3_PvEElEEEC1B8ne180100ES8_, symObjAddr: 0xDEA0, symBinAddr: 0x10000ED10, symSize: 0x30 }
  - { offset: 0x297C2, size: 0x8, addend: 0x0, symName: __ZNSt3__16__treeINS_12__value_typeIijEENS_19__map_value_compareIiS2_NS_4lessIiEELb1EEENS_9allocatorIS2_EEE13__lower_boundIiEENS_15__tree_iteratorIS2_PNS_11__tree_nodeIS2_PvEElEERKT_SF_PNS_15__tree_end_nodeIPNS_16__tree_node_baseISD_EEEE, symObjAddr: 0xDED0, symBinAddr: 0x10000ED40, symSize: 0x90 }
  - { offset: 0x2981E, size: 0x8, addend: 0x0, symName: __ZNSt3__16__treeINS_12__value_typeIijEENS_19__map_value_compareIiS2_NS_4lessIiEELb1EEENS_9allocatorIS2_EEE3endB8ne180100Ev, symObjAddr: 0xDF90, symBinAddr: 0x10000EE00, symSize: 0x30 }
  - { offset: 0x29844, size: 0x8, addend: 0x0, symName: __ZNKSt3__115__tree_iteratorINS_12__value_typeIijEEPNS_11__tree_nodeIS2_PvEElEdeB8ne180100Ev, symObjAddr: 0xDFC0, symBinAddr: 0x10000EE30, symSize: 0x20 }
  - { offset: 0x2986A, size: 0x8, addend: 0x0, symName: __ZNSt3__115__tree_iteratorINS_12__value_typeIijEEPNS_11__tree_nodeIS2_PvEElEC1B8ne180100EPNS_15__tree_end_nodeIPNS_16__tree_node_baseIS4_EEEE, symObjAddr: 0xDFE0, symBinAddr: 0x10000EE50, symSize: 0x30 }
  - { offset: 0x298A3, size: 0x8, addend: 0x0, symName: __ZNSt3__115__tree_iteratorINS_12__value_typeIijEEPNS_11__tree_nodeIS2_PvEElEC2B8ne180100EPNS_15__tree_end_nodeIPNS_16__tree_node_baseIS4_EEEE, symObjAddr: 0xE010, symBinAddr: 0x10000EE80, symSize: 0x20 }
  - { offset: 0x298DC, size: 0x8, addend: 0x0, symName: __ZNSt3__114__map_iteratorINS_15__tree_iteratorINS_12__value_typeIijEEPNS_11__tree_nodeIS3_PvEElEEEC2B8ne180100ES8_, symObjAddr: 0xE060, symBinAddr: 0x10000EED0, symSize: 0x20 }
  - { offset: 0x29915, size: 0x8, addend: 0x0, symName: __ZNSt3__16vectorIiNS_9allocatorIiEEE7__clearB8ne180100Ev, symObjAddr: 0xE080, symBinAddr: 0x10000EEF0, symSize: 0x20 }
  - { offset: 0x2993B, size: 0x8, addend: 0x0, symName: __ZNSt3__112basic_stringIcNS_11char_traitsIcEENS_9allocatorIcEEEC2B8ne180100ILi0EEEPKc, symObjAddr: 0xE0A0, symBinAddr: 0x10000EF10, symSize: 0x50 }
  - { offset: 0x2997A, size: 0x8, addend: 0x0, symName: __ZNSt3__16vectorIP4DataNS_9allocatorIS2_EEE11__make_iterB8ne180100EPS2_, symObjAddr: 0xE0F0, symBinAddr: 0x10000EF60, symSize: 0x30 }
  - { offset: 0x299AF, size: 0x8, addend: 0x0, symName: __ZNSt3__111__wrap_iterIPP4DataEC1B8ne180100ES3_, symObjAddr: 0xE120, symBinAddr: 0x10000EF90, symSize: 0x30 }
  - { offset: 0x299E7, size: 0x8, addend: 0x0, symName: __ZNSt3__111__wrap_iterIPP4DataEC2B8ne180100ES3_, symObjAddr: 0xE150, symBinAddr: 0x10000EFC0, symSize: 0x20 }
  - { offset: 0x29A1F, size: 0x8, addend: 0x0, symName: __ZNSt3__16vectorIiNS_9allocatorIiEEEC2B8ne180100Ev, symObjAddr: 0xE170, symBinAddr: 0x10000EFE0, symSize: 0x50 }
  - { offset: 0x29A49, size: 0x8, addend: 0x0, symName: __ZNSt3__117__compressed_pairIPiNS_9allocatorIiEEEC1B8ne180100IDnNS_18__default_init_tagEEEOT_OT0_, symObjAddr: 0xE1C0, symBinAddr: 0x10000F030, symSize: 0x30 }
  - { offset: 0x29AA1, size: 0x8, addend: 0x0, symName: __ZNSt3__117__compressed_pairIPiNS_9allocatorIiEEEC2B8ne180100IDnNS_18__default_init_tagEEEOT_OT0_, symObjAddr: 0xE1F0, symBinAddr: 0x10000F060, symSize: 0x40 }
  - { offset: 0x29AF9, size: 0x8, addend: 0x0, symName: __ZNSt3__122__compressed_pair_elemINS_9allocatorIiEELi1ELb1EEC2B8ne180100ENS_18__default_init_tagE, symObjAddr: 0xE230, symBinAddr: 0x10000F0A0, symSize: 0x20 }
  - { offset: 0x29B2D, size: 0x8, addend: 0x0, symName: __ZNSt3__19allocatorIiEC2B8ne180100Ev, symObjAddr: 0xE250, symBinAddr: 0x10000F0C0, symSize: 0x20 }
  - { offset: 0x29B57, size: 0x8, addend: 0x0, symName: __ZNSt3__116__non_trivial_ifILb1ENS_9allocatorIiEEEC2B8ne180100Ev, symObjAddr: 0xE270, symBinAddr: 0x10000F0E0, symSize: 0x10 }
  - { offset: 0x29B81, size: 0x8, addend: 0x0, symName: __ZNSt3__16vectorIiNS_9allocatorIiEEED2B8ne180100Ev, symObjAddr: 0xE280, symBinAddr: 0x10000F0F0, symSize: 0x40 }
  - { offset: 0x29BAB, size: 0x8, addend: 0x0, symName: __ZNSt3__16vectorIiNS_9allocatorIiEEE16__destroy_vectorC1B8ne180100ERS3_, symObjAddr: 0xE2C0, symBinAddr: 0x10000F130, symSize: 0x30 }
  - { offset: 0x29BE4, size: 0x8, addend: 0x0, symName: __ZNSt3__16vectorIiNS_9allocatorIiEEE16__destroy_vectorclB8ne180100Ev, symObjAddr: 0xE2F0, symBinAddr: 0x10000F160, symSize: 0x80 }
  - { offset: 0x29C0A, size: 0x8, addend: 0x0, symName: __ZNSt3__16vectorIiNS_9allocatorIiEEE16__destroy_vectorC2B8ne180100ERS3_, symObjAddr: 0xE370, symBinAddr: 0x10000F1E0, symSize: 0x19 }
...
